(dp0
S'labels'
p1
ccollections
defaultdict
p2
(c__builtin__
dict
p3
tp4
Rp5
S'1'
p6
(dp7
g6
(lp8
S'100'
p9
aS'234'
p10
aS'156'
p11
aS'113'
p12
aS'228'
p13
aS'128'
p14
aS'182'
p15
aS'235'
p16
aS'227'
p17
aS'202'
p18
aS'226'
p19
aS'159'
p20
aS'124'
p21
aS'126'
p22
aS'212'
p23
aS'240'
p24
aS'157'
p25
aS'130'
p26
aS'237'
p27
aS'222'
p28
aS'230'
p29
aS'170'
p30
aS'117'
p31
aS'141'
p32
aS'187'
p33
aS'138'
p34
aS'155'
p35
aS'152'
p36
aS'223'
p37
aS'238'
p38
aS'194'
p39
aS'209'
p40
aS'107'
p41
aS'217'
p42
aS'236'
p43
aS'102'
p44
aS'231'
p45
aS'103'
p46
aS'218'
p47
aS'220'
p48
aS'239'
p49
asS'0'
p50
(lp51
S'173'
p52
aS'174'
p53
aS'135'
p54
aS'139'
p55
aS'165'
p56
aS'118'
p57
aS'123'
p58
aS'206'
p59
aS'127'
p60
aS'211'
p61
aS'144'
p62
aS'120'
p63
aS'229'
p64
aS'179'
p65
aS'122'
p66
aS'171'
p67
aS'195'
p68
aS'116'
p69
aS'112'
p70
aS'167'
p71
aS'150'
p72
aS'233'
p73
aS'175'
p74
aS'210'
p75
aS'142'
p76
aS'101'
p77
aS'208'
p78
aS'201'
p79
aS'137'
p80
aS'119'
p81
aS'148'
p82
aS'190'
p83
aS'178'
p84
aS'189'
p85
aS'204'
p86
aS'147'
p87
aS'183'
p88
aS'111'
p89
aS'197'
p90
aS'154'
p91
aS'133'
p92
aS'199'
p93
aS'110'
p94
aS'115'
p95
aS'203'
p96
aS'146'
p97
aS'163'
p98
aS'158'
p99
aS'215'
p100
aS'219'
p101
aS'108'
p102
aS'188'
p103
aS'143'
p104
aS'221'
p105
aS'164'
p106
aS'216'
p107
aS'129'
p108
aS'121'
p109
aS'185'
p110
aS'225'
p111
aS'192'
p112
aS'131'
p113
aS'114'
p114
aS'132'
p115
aS'161'
p116
aS'198'
p117
aS'214'
p118
aS'104'
p119
aS'200'
p120
aS'125'
p121
aS'177'
p122
aS'151'
p123
aS'196'
p124
aS'186'
p125
aS'193'
p126
aS'106'
p127
aS'149'
p128
aS'136'
p129
aS'162'
p130
aS'172'
p131
aS'105'
p132
aS'168'
p133
aS'181'
p134
aS'205'
p135
aS'140'
p136
aS'145'
p137
aS'191'
p138
aS'176'
p139
aS'153'
p140
aS'232'
p141
aS'134'
p142
aS'213'
p143
aS'207'
p144
aS'224'
p145
aS'160'
p146
aS'166'
p147
aS'109'
p148
aS'169'
p149
aS'184'
p150
aS'180'
p151
assg50
(dp152
g6
(lp153
S'25'
p154
aS'31'
p155
aS'37'
p156
aS'73'
p157
aS'50'
p158
aS'65'
p159
aS'83'
p160
aS'12'
p161
aS'13'
p162
aS'21'
p163
aS'27'
p164
aS'41'
p165
aS'45'
p166
aS'57'
p167
aS'58'
p168
aS'64'
p169
aS'66'
p170
aS'70'
p171
aS'86'
p172
aS'87'
p173
aS'89'
p174
aS'97'
p175
aS'98'
p176
aS'3'
p177
aS'16'
p178
aS'51'
p179
aS'68'
p180
aS'74'
p181
aS'76'
p182
aS'77'
p183
aS'78'
p184
aS'80'
p185
aS'82'
p186
asg50
(lp187
S'71'
p188
aS'14'
p189
aS'52'
p190
aS'42'
p191
aS'46'
p192
aS'72'
p193
aS'94'
p194
ag6
aS'7'
p195
aS'8'
p196
aS'9'
p197
aS'11'
p198
asg177
(lp199
S'36'
p200
aS'47'
p201
aS'32'
p202
aS'48'
p203
aS'49'
p204
aS'55'
p205
aS'62'
p206
aS'90'
p207
aS'91'
p208
aS'99'
p209
aS'2'
p210
aS'79'
p211
asg210
(lp212
S'28'
p213
aS'34'
p214
aS'26'
p215
aS'17'
p216
aS'19'
p217
aS'23'
p218
aS'38'
p219
aS'39'
p220
aS'43'
p221
aS'61'
p222
aS'69'
p223
aS'5'
p224
aS'18'
p225
aS'20'
p226
aS'24'
p227
aS'29'
p228
aS'30'
p229
aS'33'
p230
aS'35'
p231
aS'40'
p232
aS'53'
p233
aS'54'
p234
aS'56'
p235
aS'81'
p236
aS'84'
p237
aS'88'
p238
aS'93'
p239
aS'95'
p240
ag50
aS'4'
p241
aS'6'
p242
aS'10'
p243
aS'15'
p244
aS'22'
p245
aS'44'
p246
aS'59'
p247
aS'60'
p248
aS'63'
p249
aS'67'
p250
aS'75'
p251
aS'85'
p252
aS'92'
p253
aS'96'
p254
assg177
(dp255
g6
(lp256
S'250'
p257
asg50
(lp258
S'251'
p259
asg177
(lp260
S'252'
p261
asg210
(lp262
S'249'
p263
assg210
(dp264
g6
(lp265
S'243'
p266
aS'248'
p267
asg50
(lp268
S'241'
p269
aS'246'
p270
asg177
(lp271
S'244'
p272
aS'247'
p273
asg210
(lp274
S'242'
p275
aS'245'
p276
asssS'links'
p277
g2
(g3
tp278
Rp279
g6
(dp280
S'216'
p281
(dp282
S'130'
p283
g6
sS'147'
p284
g6
sS'215'
p285
g6
ssS'217'
p286
(dp287
S'133'
p288
g6
sS'150'
p289
g6
sS'136'
p290
g6
sS'134'
p291
g6
ssS'214'
p292
(dp293
S'124'
p294
g6
sS'213'
p295
g6
ssS'215'
p296
(dp297
S'216'
p298
g6
sS'147'
p299
g6
sS'130'
p300
g6
ssS'212'
p301
(dp302
S'102'
p303
g6
sS'103'
p304
g177
sS'100'
p305
g6
sS'224'
p306
g6
sS'223'
p307
g6
sS'222'
p308
g6
ssS'213'
p309
(dp310
S'214'
p311
g6
sS'124'
p312
g6
ssS'210'
p313
(dp314
S'209'
p315
g6
sS'211'
p316
g6
ssS'211'
p317
(dp318
S'209'
p319
g6
sS'210'
p320
g6
ssS'218'
p321
(dp322
S'130'
p323
g6
sS'219'
p324
g6
ssS'219'
p325
(dp326
S'130'
p327
g210
sS'218'
p328
g6
ssS'133'
p329
(dp330
S'217'
p331
g6
sS'130'
p332
g210
sS'124'
p333
g6
sS'136'
p334
g210
sS'135'
p335
g6
sS'134'
p336
g210
sS'103'
p337
g6
ssS'132'
p338
(dp339
S'131'
p340
g6
sS'130'
p341
g6
ssS'131'
p342
(dp343
S'132'
p344
g6
sS'130'
p345
g6
ssS'130'
p346
(dp347
S'216'
p348
g6
sS'215'
p349
g6
sS'218'
p350
g6
sS'219'
p351
g210
sS'133'
p352
g210
sS'132'
p353
g6
sS'131'
p354
g6
sS'136'
p355
g6
sS'135'
p356
g6
sS'134'
p357
g6
sS'165'
p358
g6
sS'186'
p359
g177
sS'184'
p360
g6
sS'185'
p361
g6
sS'147'
p362
g224
sS'148'
p363
g6
sS'124'
p364
g6
sS'125'
p365
g6
sS'164'
p366
g6
sS'103'
p367
g241
sS'166'
p368
g6
sS'167'
p369
g6
ssS'137'
p370
(dp371
S'139'
p372
g6
sS'138'
p373
g6
sS'140'
p374
g6
ssS'136'
p375
(dp376
S'217'
p377
g6
sS'133'
p378
g210
sS'130'
p379
g6
sS'124'
p380
g6
sS'135'
p381
g6
sS'134'
p382
g210
sS'103'
p383
g6
ssS'135'
p384
(dp385
S'133'
p386
g6
sS'130'
p387
g6
sS'124'
p388
g6
sS'136'
p389
g6
sS'134'
p390
g6
sS'103'
p391
g6
ssS'134'
p392
(dp393
S'217'
p394
g6
sS'133'
p395
g210
sS'130'
p396
g6
sS'124'
p397
g6
sS'136'
p398
g210
sS'135'
p399
g6
sS'103'
p400
g6
ssS'139'
p401
(dp402
S'138'
p403
g6
sS'137'
p404
g6
sS'140'
p405
g6
ssS'138'
p406
(dp407
S'139'
p408
g6
sS'137'
p409
g6
sS'140'
p410
g6
ssS'225'
p411
(dp412
S'159'
p413
g210
sS'103'
p414
g210
sS'207'
p415
g210
ssS'224'
p416
(dp417
S'212'
p418
g6
sS'223'
p419
g6
sS'222'
p420
g210
sS'157'
p421
g6
sS'103'
p422
g210
ssS'223'
p423
(dp424
S'103'
p425
g210
sS'224'
p426
g6
sS'212'
p427
g6
sS'222'
p428
g210
ssS'222'
p429
(dp430
S'212'
p431
g6
sS'224'
p432
g210
sS'223'
p433
g210
sS'157'
p434
g6
sS'103'
p435
g177
ssS'221'
p436
(dp437
S'182'
p438
g241
ssS'220'
p439
(dp440
S'103'
p441
g210
sS'202'
p442
g6
sS'124'
p443
g6
sS'125'
p444
g6
sS'152'
p445
g6
ssS'120'
p446
(dp447
S'121'
p448
g6
sS'122'
p449
g6
sS'123'
p450
g6
sS'100'
p451
g6
sS'119'
p452
g6
sS'118'
p453
g6
ssS'121'
p454
(dp455
S'120'
p456
g6
sS'122'
p457
g6
sS'123'
p458
g6
sS'100'
p459
g6
sS'119'
p460
g6
sS'118'
p461
g6
ssS'122'
p462
(dp463
S'120'
p464
g6
sS'121'
p465
g6
sS'123'
p466
g6
sS'100'
p467
g6
sS'119'
p468
g6
sS'118'
p469
g6
ssS'123'
p470
(dp471
S'120'
p472
g6
sS'121'
p473
g6
sS'122'
p474
g6
sS'100'
p475
g6
sS'119'
p476
g6
sS'118'
p477
g6
ssS'124'
p478
(dp479
S'214'
p480
g6
sS'113'
p481
g210
sS'213'
p482
g6
sS'133'
p483
g6
sS'130'
p484
g6
sS'136'
p485
g6
sS'135'
p486
g6
sS'134'
p487
g6
sS'103'
p488
g195
sS'220'
p489
g6
sS'187'
p490
g210
sS'125'
p491
g177
ssS'125'
p492
(dp493
S'235'
p494
g6
sS'103'
p495
g241
sS'130'
p496
g6
sS'124'
p497
g177
sS'220'
p498
g6
ssS'126'
p499
(dp500
S'128'
p501
g6
sS'129'
p502
g6
sS'127'
p503
g210
ssS'127'
p504
(dp505
S'128'
p506
g6
sS'129'
p507
g6
sS'126'
p508
g210
ssS'128'
p509
(dp510
S'155'
p511
g6
sS'154'
p512
g6
sS'157'
p513
g6
sS'156'
p514
g6
sS'158'
p515
g6
sS'126'
p516
g6
sS'127'
p517
g6
sS'129'
p518
g6
sS'103'
p519
g6
ssS'129'
p520
(dp521
S'128'
p522
g6
sS'126'
p523
g6
sS'127'
p524
g6
ssS'201'
p525
(dp526
S'103'
p527
g6
sS'203'
p528
g6
sS'202'
p529
g6
sS'204'
p530
g6
ssS'199'
p531
(dp532
S'200'
p533
g6
sS'198'
p534
g6
sS'195'
p535
g6
sS'194'
p536
g6
sS'197'
p537
g6
sS'196'
p538
g6
sS'193'
p539
g6
ssS'198'
p540
(dp541
S'200'
p542
g6
sS'199'
p543
g6
sS'195'
p544
g6
sS'194'
p545
g6
sS'197'
p546
g6
sS'196'
p547
g6
sS'193'
p548
g6
ssS'200'
p549
(dp550
S'199'
p551
g6
sS'198'
p552
g6
sS'195'
p553
g6
sS'194'
p554
g6
sS'197'
p555
g6
sS'196'
p556
g6
sS'193'
p557
g6
ssS'195'
p558
(dp559
S'200'
p560
g6
sS'199'
p561
g6
sS'198'
p562
g6
sS'194'
p563
g6
sS'197'
p564
g6
sS'196'
p565
g6
sS'193'
p566
g6
ssS'194'
p567
(dp568
S'200'
p569
g6
sS'199'
p570
g6
sS'198'
p571
g6
sS'195'
p572
g6
sS'197'
p573
g6
sS'196'
p574
g6
sS'193'
p575
g6
ssS'197'
p576
(dp577
S'200'
p578
g6
sS'199'
p579
g6
sS'198'
p580
g6
sS'195'
p581
g6
sS'194'
p582
g6
sS'196'
p583
g6
sS'193'
p584
g6
ssS'196'
p585
(dp586
S'200'
p587
g6
sS'199'
p588
g6
sS'198'
p589
g6
sS'195'
p590
g6
sS'194'
p591
g6
sS'197'
p592
g6
sS'193'
p593
g6
ssS'191'
p594
(dp595
S'192'
p596
g6
sS'190'
p597
g6
sS'107'
p598
g6
ssS'190'
p599
(dp600
S'191'
p601
g6
sS'107'
p602
g6
sS'192'
p603
g6
ssS'193'
p604
(dp605
S'200'
p606
g6
sS'199'
p607
g6
sS'198'
p608
g6
sS'195'
p609
g6
sS'194'
p610
g6
sS'197'
p611
g6
sS'196'
p612
g6
ssS'192'
p613
(dp614
S'191'
p615
g6
sS'190'
p616
g6
sS'107'
p617
g6
ssS'115'
p618
(dp619
S'117'
p620
g210
sS'116'
p621
g210
ssS'114'
p622
(dp623
S'176'
p624
g6
sS'106'
p625
g6
sS'107'
p626
g210
ssS'117'
p627
(dp628
S'115'
p629
g210
sS'116'
p630
g210
ssS'116'
p631
(dp632
S'115'
p633
g210
sS'117'
p634
g210
ssS'111'
p635
(dp636
S'108'
p637
g6
sS'109'
p638
g6
sS'110'
p639
g6
sS'113'
p640
g6
sS'112'
p641
g6
ssS'110'
p642
(dp643
S'108'
p644
g6
sS'109'
p645
g6
sS'111'
p646
g6
sS'113'
p647
g6
sS'112'
p648
g6
ssS'113'
p649
(dp650
S'108'
p651
g6
sS'109'
p652
g6
sS'124'
p653
g210
sS'110'
p654
g6
sS'112'
p655
g6
sS'111'
p656
g6
sS'103'
p657
g210
sS'187'
p658
g210
ssS'112'
p659
(dp660
S'108'
p661
g6
sS'109'
p662
g6
sS'111'
p663
g6
sS'110'
p664
g6
sS'113'
p665
g6
ssS'205'
p666
(dp667
S'159'
p668
g6
sS'103'
p669
g6
sS'208'
p670
g6
sS'207'
p671
g6
sS'206'
p672
g6
ssS'119'
p673
(dp674
S'120'
p675
g6
sS'121'
p676
g6
sS'122'
p677
g6
sS'123'
p678
g6
sS'100'
p679
g6
sS'118'
p680
g6
ssS'118'
p681
(dp682
S'120'
p683
g6
sS'121'
p684
g6
sS'122'
p685
g6
sS'123'
p686
g6
sS'100'
p687
g6
sS'119'
p688
g6
ssS'204'
p689
(dp690
S'201'
p691
g6
sS'103'
p692
g6
sS'203'
p693
g6
sS'202'
p694
g6
ssS'207'
p695
(dp696
S'205'
p697
g6
sS'206'
p698
g6
sS'159'
p699
g177
sS'208'
p700
g6
sS'103'
p701
g177
sS'225'
p702
g210
ssS'206'
p703
(dp704
S'159'
p705
g6
sS'103'
p706
g6
sS'205'
p707
g6
sS'207'
p708
g6
sS'208'
p709
g6
ssS'108'
p710
(dp711
S'109'
p712
g6
sS'111'
p713
g6
sS'110'
p714
g6
sS'113'
p715
g6
sS'112'
p716
g6
ssS'109'
p717
(dp718
S'108'
p719
g6
sS'111'
p720
g6
sS'110'
p721
g6
sS'113'
p722
g6
sS'112'
p723
g6
ssS'102'
p724
(dp725
S'103'
p726
g210
sS'100'
p727
g210
sS'101'
p728
g6
sS'212'
p729
g6
ssS'103'
p730
(dp731
S'224'
p732
g210
sS'152'
p733
g210
sS'155'
p734
g6
sS'154'
p735
g177
sS'157'
p736
g177
sS'156'
p737
g6
sS'159'
p738
g241
sS'158'
p739
g177
sS'134'
p740
g6
sS'113'
p741
g210
sS'133'
p742
g6
sS'128'
p743
g6
sS'130'
p744
g241
sS'136'
p745
g6
sS'179'
p746
g6
sS'178'
p747
g6
sS'234'
p748
g210
sS'212'
p749
g177
sS'235'
p750
g6
sS'166'
p751
g6
sS'232'
p752
g6
sS'101'
p753
g6
sS'223'
p754
g210
sS'231'
p755
g6
sS'187'
p756
g210
sS'188'
p757
g6
sS'189'
p758
g6
sS'201'
p759
g6
sS'203'
p760
g6
sS'202'
p761
g210
sS'205'
p762
g6
sS'204'
p763
g6
sS'207'
p764
g177
sS'206'
p765
g6
sS'208'
p766
g6
sS'225'
p767
g210
sS'124'
p768
g195
sS'125'
p769
g241
sS'164'
p770
g6
sS'165'
p771
g6
sS'100'
p772
g210
sS'167'
p773
g6
sS'102'
p774
g210
sS'222'
p775
g177
sS'236'
p776
g6
sS'220'
p777
g210
sS'135'
p778
g6
ssS'100'
p779
(dp780
S'212'
p781
g6
sS'120'
p782
g6
sS'121'
p783
g6
sS'122'
p784
g6
sS'123'
p785
g6
sS'102'
p786
g210
sS'103'
p787
g210
sS'101'
p788
g6
sS'119'
p789
g6
sS'118'
p790
g6
ssS'101'
p791
(dp792
S'102'
p793
g6
sS'103'
p794
g6
sS'100'
p795
g6
ssS'106'
p796
(dp797
S'114'
p798
g6
sS'104'
p799
g6
sS'105'
p800
g6
sS'107'
p801
g177
sS'162'
p802
g6
sS'163'
p803
g6
ssS'107'
p804
(dp805
S'150'
p806
g6
sS'174'
p807
g6
sS'173'
p808
g6
sS'191'
p809
g6
sS'190'
p810
g6
sS'149'
p811
g6
sS'114'
p812
g210
sS'162'
p813
g6
sS'192'
p814
g6
sS'177'
p815
g6
sS'176'
p816
g210
sS'175'
p817
g6
sS'163'
p818
g6
sS'106'
p819
g177
sS'172'
p820
g6
sS'104'
p821
g6
sS'105'
p822
g6
ssS'104'
p823
(dp824
S'106'
p825
g6
sS'107'
p826
g6
sS'105'
p827
g6
ssS'105'
p828
(dp829
S'159'
p830
g210
sS'106'
p831
g6
sS'107'
p832
g6
sS'104'
p833
g6
sS'233'
p834
g210
ssS'179'
p835
(dp836
S'103'
p837
g6
sS'154'
p838
g6
sS'178'
p839
g6
ssS'178'
p840
(dp841
S'103'
p842
g6
sS'154'
p843
g6
sS'179'
p844
g6
ssS'177'
p845
(dp846
S'176'
p847
g6
sS'175'
p848
g6
sS'107'
p849
g6
ssS'176'
p850
(dp851
S'177'
p852
g6
sS'114'
p853
g6
sS'175'
p854
g6
sS'107'
p855
g210
ssS'175'
p856
(dp857
S'177'
p858
g6
sS'176'
p859
g6
sS'107'
p860
g6
ssS'174'
p861
(dp862
S'173'
p863
g6
sS'172'
p864
g6
sS'107'
p865
g6
ssS'173'
p866
(dp867
S'174'
p868
g6
sS'172'
p869
g6
sS'107'
p870
g6
ssS'172'
p871
(dp872
S'174'
p873
g6
sS'173'
p874
g6
sS'107'
p875
g6
ssS'171'
p876
(dp877
S'168'
p878
g6
sS'169'
p879
g6
sS'170'
p880
g6
ssS'170'
p881
(dp882
S'168'
p883
g6
sS'169'
p884
g6
sS'171'
p885
g6
ssS'203'
p886
(dp887
S'201'
p888
g6
sS'103'
p889
g6
sS'202'
p890
g6
sS'204'
p891
g6
ssS'182'
p892
(dp893
S'183'
p894
g6
sS'180'
p895
g6
sS'181'
p896
g6
sS'221'
p897
g241
ssS'183'
p898
(dp899
S'182'
p900
g6
sS'180'
p901
g6
sS'181'
p902
g6
ssS'180'
p903
(dp904
S'182'
p905
g6
sS'183'
p906
g6
sS'181'
p907
g6
ssS'181'
p908
(dp909
S'182'
p910
g6
sS'183'
p911
g6
sS'180'
p912
g6
ssS'186'
p913
(dp914
S'147'
p915
g177
sS'130'
p916
g177
ssS'187'
p917
(dp918
S'103'
p919
g210
sS'124'
p920
g210
sS'113'
p921
g210
ssS'184'
p922
(dp923
S'130'
p924
g6
sS'185'
p925
g6
ssS'185'
p926
(dp927
S'130'
p928
g6
sS'184'
p929
g6
ssS'188'
p930
(dp931
S'103'
p932
g6
sS'189'
p933
g6
ssS'189'
p934
(dp935
S'103'
p936
g6
sS'188'
p937
g6
ssS'202'
p938
(dp939
S'201'
p940
g6
sS'203'
p941
g6
sS'152'
p942
g6
sS'204'
p943
g6
sS'103'
p944
g210
sS'220'
p945
g6
ssS'168'
p946
(dp947
S'169'
p948
g6
sS'171'
p949
g6
sS'170'
p950
g6
ssS'169'
p951
(dp952
S'168'
p953
g6
sS'171'
p954
g6
sS'170'
p955
g6
ssS'229'
p956
(dp957
S'230'
p958
g210
ssS'164'
p959
(dp960
S'103'
p961
g6
sS'166'
p962
g6
sS'130'
p963
g6
sS'167'
p964
g6
sS'165'
p965
g6
ssS'165'
p966
(dp967
S'164'
p968
g6
sS'103'
p969
g6
sS'166'
p970
g6
sS'130'
p971
g6
sS'167'
p972
g6
ssS'166'
p973
(dp974
S'164'
p975
g6
sS'103'
p976
g6
sS'167'
p977
g6
sS'130'
p978
g6
sS'165'
p979
g6
ssS'167'
p980
(dp981
S'164'
p982
g6
sS'103'
p983
g6
sS'166'
p984
g6
sS'130'
p985
g6
sS'165'
p986
g6
ssS'160'
p987
(dp988
S'159'
p989
g6
sS'161'
p990
g6
ssS'161'
p991
(dp992
S'159'
p993
g6
sS'160'
p994
g6
ssS'162'
p995
(dp996
S'106'
p997
g6
sS'107'
p998
g6
sS'163'
p999
g6
ssS'163'
p1000
(dp1001
S'106'
p1002
g6
sS'107'
p1003
g6
sS'162'
p1004
g6
ssS'151'
p1005
(dp1006
S'153'
p1007
g6
sS'152'
p1008
g6
ssS'150'
p1009
(dp1010
S'217'
p1011
g6
sS'107'
p1012
g6
sS'149'
p1013
g6
ssS'153'
p1014
(dp1015
S'151'
p1016
g6
sS'152'
p1017
g6
ssS'152'
p1018
(dp1019
S'151'
p1020
g6
sS'153'
p1021
g6
sS'202'
p1022
g6
sS'157'
p1023
g6
sS'103'
p1024
g210
sS'220'
p1025
g6
ssS'155'
p1026
(dp1027
S'154'
p1028
g6
sS'157'
p1029
g6
sS'156'
p1030
g6
sS'158'
p1031
g6
sS'128'
p1032
g6
sS'103'
p1033
g6
ssS'154'
p1034
(dp1035
S'155'
p1036
g6
sS'157'
p1037
g6
sS'156'
p1038
g6
sS'158'
p1039
g210
sS'234'
p1040
g6
sS'179'
p1041
g6
sS'178'
p1042
g6
sS'128'
p1043
g6
sS'103'
p1044
g177
ssS'157'
p1045
(dp1046
S'152'
p1047
g6
sS'155'
p1048
g6
sS'154'
p1049
g6
sS'156'
p1050
g6
sS'158'
p1051
g6
sS'128'
p1052
g6
sS'103'
p1053
g177
sS'224'
p1054
g6
sS'222'
p1055
g6
ssS'156'
p1056
(dp1057
S'155'
p1058
g6
sS'154'
p1059
g6
sS'157'
p1060
g6
sS'158'
p1061
g6
sS'128'
p1062
g6
sS'103'
p1063
g6
ssS'159'
p1064
(dp1065
S'205'
p1066
g6
sS'207'
p1067
g177
sS'206'
p1068
g6
sS'208'
p1069
g6
sS'103'
p1070
g241
sS'225'
p1071
g210
sS'105'
p1072
g210
sS'160'
p1073
g6
sS'161'
p1074
g6
sS'233'
p1075
g210
ssS'158'
p1076
(dp1077
S'155'
p1078
g6
sS'154'
p1079
g210
sS'157'
p1080
g6
sS'156'
p1081
g6
sS'234'
p1082
g210
sS'128'
p1083
g6
sS'103'
p1084
g177
ssS'234'
p1085
(dp1086
S'103'
p1087
g210
sS'154'
p1088
g6
sS'158'
p1089
g210
ssS'235'
p1090
(dp1091
S'103'
p1092
g6
sS'125'
p1093
g6
ssS'236'
p1094
(dp1095
S'103'
p1096
g6
sS'232'
p1097
g6
ssS'230'
p1098
(dp1099
S'229'
p1100
g210
ssS'231'
p1101
(dp1102
S'103'
p1103
g6
sS'232'
p1104
g6
ssS'232'
p1105
(dp1106
S'103'
p1107
g6
sS'236'
p1108
g6
sS'231'
p1109
g6
ssS'233'
p1110
(dp1111
S'159'
p1112
g210
sS'105'
p1113
g210
ssS'146'
p1114
(dp1115
S'144'
p1116
g6
sS'145'
p1117
g6
sS'142'
p1118
g6
sS'143'
p1119
g6
sS'141'
p1120
g6
ssS'147'
p1121
(dp1122
S'215'
p1123
g6
sS'216'
p1124
g6
sS'130'
p1125
g224
sS'186'
p1126
g177
sS'148'
p1127
g6
ssS'144'
p1128
(dp1129
S'146'
p1130
g6
sS'145'
p1131
g6
sS'142'
p1132
g6
sS'143'
p1133
g6
sS'141'
p1134
g6
ssS'145'
p1135
(dp1136
S'146'
p1137
g6
sS'144'
p1138
g6
sS'142'
p1139
g6
sS'143'
p1140
g6
sS'141'
p1141
g6
ssS'142'
p1142
(dp1143
S'146'
p1144
g6
sS'144'
p1145
g6
sS'145'
p1146
g6
sS'143'
p1147
g6
sS'141'
p1148
g210
ssS'143'
p1149
(dp1150
S'146'
p1151
g6
sS'144'
p1152
g6
sS'145'
p1153
g6
sS'142'
p1154
g6
sS'141'
p1155
g6
ssS'140'
p1156
(dp1157
S'139'
p1158
g6
sS'138'
p1159
g6
sS'137'
p1160
g6
ssS'141'
p1161
(dp1162
S'146'
p1163
g6
sS'144'
p1164
g6
sS'145'
p1165
g6
sS'142'
p1166
g210
sS'143'
p1167
g6
ssS'209'
p1168
(dp1169
S'210'
p1170
g6
sS'211'
p1171
g6
ssS'208'
p1172
(dp1173
S'159'
p1174
g6
sS'103'
p1175
g6
sS'205'
p1176
g6
sS'207'
p1177
g6
sS'206'
p1178
g6
ssS'148'
p1179
(dp1180
S'147'
p1181
g6
sS'130'
p1182
g6
ssS'149'
p1183
(dp1184
S'150'
p1185
g6
sS'107'
p1186
g6
sssg50
(dp1187
S'24'
p1188
(dp1189
S'25'
p1190
g6
sS'26'
p1191
g6
sS'27'
p1192
g6
sS'19'
p1193
g6
sS'31'
p1194
g6
sS'30'
p1195
g6
sS'28'
p1196
g6
sS'29'
p1197
g6
sS'77'
p1198
g6
sS'95'
p1199
g6
ssS'25'
p1200
(dp1201
S'24'
p1202
g6
sS'26'
p1203
g6
sS'27'
p1204
g6
sS'17'
p1205
g6
sS'19'
p1206
g6
sS'55'
p1207
g6
sS'31'
p1208
g210
sS'30'
p1209
g6
sS'28'
p1210
g210
sS'29'
p1211
g6
sS'41'
p1212
g6
sS'33'
p1213
g6
sS'73'
p1214
g6
sS'72'
p1215
g6
sS'71'
p1216
g6
sS'70'
p1217
g6
sS'47'
p1218
g6
ssS'26'
p1219
(dp1220
S'24'
p1221
g6
sS'25'
p1222
g6
sS'27'
p1223
g6
sS'59'
p1224
g6
sS'65'
p1225
g6
sS'84'
p1226
g6
sS'23'
p1227
g6
sS'19'
p1228
g6
sS'32'
p1229
g6
sS'31'
p1230
g6
sS'30'
p1231
g6
sS'28'
p1232
g6
sS'29'
p1233
g6
sS'60'
p1234
g6
sS'61'
p1235
g6
sS'75'
p1236
g6
sS'37'
p1237
g6
sS'66'
p1238
g6
sS'92'
p1239
g6
sS'97'
p1240
g6
sS'85'
p1241
g6
ssS'27'
p1242
(dp1243
S'24'
p1244
g6
sS'25'
p1245
g6
sS'26'
p1246
g6
sS'19'
p1247
g6
sS'31'
p1248
g6
sS'30'
p1249
g6
sS'28'
p1250
g177
sS'29'
p1251
g6
sS'88'
p1252
g6
ssS'20'
p1253
(dp1254
S'21'
p1255
g6
sS'22'
p1256
g6
sS'19'
p1257
g6
sS'18'
p1258
g6
sS'37'
p1259
g6
sS'43'
p1260
g6
sS'86'
p1261
g6
ssS'21'
p1262
(dp1263
S'19'
p1264
g6
sS'18'
p1265
g210
sS'20'
p1266
g6
sS'22'
p1267
g6
ssS'22'
p1268
(dp1269
S'19'
p1270
g6
sS'18'
p1271
g6
sS'20'
p1272
g6
sS'21'
p1273
g6
sS'83'
p1274
g6
ssS'23'
p1275
(dp1276
S'26'
p1277
g6
sS'15'
p1278
g6
sS'16'
p1279
g6
sS'56'
p1280
g6
sg50
g6
sS'75'
p1281
g210
sS'66'
p1282
g6
sS'92'
p1283
g6
sS'96'
p1284
g6
ssS'28'
p1285
(dp1286
S'42'
p1287
g6
sS'43'
p1288
g6
sS'68'
p1289
g6
sS'88'
p1290
g177
sS'63'
p1291
g6
sS'65'
p1292
g6
sS'66'
p1293
g6
sS'67'
p1294
g6
sS'82'
p1295
g6
sS'83'
p1296
g6
sS'84'
p1297
g6
sS'24'
p1298
g6
sS'25'
p1299
g210
sS'26'
p1300
g6
sS'27'
p1301
g177
sS'48'
p1302
g6
sS'28'
p1303
g210
sS'29'
p1304
g6
sS'40'
p1305
g6
sS'99'
p1306
g210
sS'98'
p1307
g210
sS'71'
p1308
g6
sS'90'
p1309
g6
sS'69'
p1310
g210
sS'94'
p1311
g210
sS'97'
p1312
g6
sS'39'
p1313
g6
sS'38'
p1314
g6
sS'58'
p1315
g6
sS'61'
p1316
g6
sS'19'
p1317
g210
sS'54'
p1318
g210
sS'31'
p1319
g177
sS'30'
p1320
g6
sS'51'
p1321
g6
sS'50'
p1322
g6
sS'34'
p1323
g6
sS'55'
p1324
g6
sS'37'
p1325
g6
sS'57'
p1326
g6
ssS'29'
p1327
(dp1328
S'24'
p1329
g6
sS'25'
p1330
g6
sS'26'
p1331
g6
sS'27'
p1332
g6
sS'19'
p1333
g6
sS'31'
p1334
g6
sS'30'
p1335
g6
sS'28'
p1336
g6
sS'34'
p1337
g6
sS'62'
p1338
g6
ssg50
(dp1339
S'10'
p1340
g6
sS'23'
p1341
g6
sS'56'
p1342
g6
sg6
g6
sg177
g6
sg210
g6
sg224
g6
sg241
g6
sg195
g6
sg242
g6
sg197
g6
sg196
g6
sS'96'
p1343
g6
ssg241
(dp1344
S'10'
p1345
g6
sg6
g6
sg50
g6
sg177
g6
sg210
g6
sg224
g6
sg195
g6
sg242
g6
sg197
g6
sg196
g6
ssg196
(dp1346
S'10'
p1347
g6
sg6
g6
sg50
g6
sg177
g6
sg210
g6
sg224
g6
sg241
g6
sg195
g6
sg242
g6
sg197
g6
ssS'59'
p1348
(dp1349
S'26'
p1350
g6
sS'52'
p1351
g6
sS'60'
p1352
g6
sS'73'
p1353
g6
sS'82'
p1354
g6
sS'83'
p1355
g6
ssS'58'
p1356
(dp1357
S'98'
p1358
g6
sS'28'
p1359
g6
sS'94'
p1360
g6
sS'90'
p1361
g6
ssS'55'
p1362
(dp1363
S'54'
p1364
g6
sS'28'
p1365
g6
sS'47'
p1366
g6
sS'25'
p1367
g6
ssS'54'
p1368
(dp1369
S'55'
p1370
g6
sS'99'
p1371
g6
sS'28'
p1372
g210
ssS'57'
p1373
(dp1374
S'39'
p1375
g6
sS'38'
p1376
g6
sS'28'
p1377
g6
sS'37'
p1378
g6
sS'36'
p1379
g6
sS'65'
p1380
g6
ssS'56'
p1381
(dp1382
S'23'
p1383
g6
sg50
g6
sS'73'
p1384
g6
sg224
g6
sS'80'
p1385
g6
sS'96'
p1386
g210
ssS'51'
p1387
(dp1388
S'38'
p1389
g6
sS'48'
p1390
g6
sS'28'
p1391
g6
sS'53'
p1392
g6
sS'52'
p1393
g6
sS'71'
p1394
g6
sS'82'
p1395
g6
sS'69'
p1396
g6
ssS'50'
p1397
(dp1398
S'38'
p1399
g6
sS'48'
p1400
g6
sS'49'
p1401
g6
sS'46'
p1402
g6
sS'47'
p1403
g6
sS'31'
p1404
g6
sS'28'
p1405
g6
sS'36'
p1406
g6
sS'34'
p1407
g6
sS'99'
p1408
g6
sS'98'
p1409
g6
ssS'53'
p1410
(dp1411
S'31'
p1412
g6
sS'51'
p1413
g6
sS'71'
p1414
g6
sS'52'
p1415
g210
ssS'52'
p1416
(dp1417
S'59'
p1418
g6
sS'31'
p1419
g6
sS'51'
p1420
g6
sS'53'
p1421
g210
sS'77'
p1422
g6
sS'76'
p1423
g210
sS'74'
p1424
g6
sS'73'
p1425
g6
sS'71'
p1426
g6
sS'82'
p1427
g6
sS'83'
p1428
g6
sS'80'
p1429
g6
sS'79'
p1430
g6
sS'78'
p1431
g6
ssS'88'
p1432
(dp1433
S'27'
p1434
g6
sS'19'
p1435
g6
sS'28'
p1436
g177
sS'42'
p1437
g6
sS'61'
p1438
g6
sS'94'
p1439
g6
ssS'89'
p1440
(dp1441
S'60'
p1442
g6
sS'90'
p1443
g6
sS'69'
p1444
g210
sS'78'
p1445
g6
ssS'82'
p1446
(dp1447
S'38'
p1448
g6
sS'59'
p1449
g6
sS'48'
p1450
g6
sS'51'
p1451
g6
sS'28'
p1452
g6
sS'52'
p1453
g6
sS'73'
p1454
g6
sS'71'
p1455
g6
sS'83'
p1456
g6
sS'69'
p1457
g6
ssS'83'
p1458
(dp1459
S'59'
p1460
g6
sS'22'
p1461
g6
sS'28'
p1462
g6
sS'43'
p1463
g6
sS'34'
p1464
g6
sS'73'
p1465
g6
sS'71'
p1466
g6
sS'82'
p1467
g6
sS'52'
p1468
g6
sS'84'
p1469
g6
ssS'80'
p1470
(dp1471
S'56'
p1472
g6
sS'52'
p1473
g6
sS'77'
p1474
g6
sS'76'
p1475
g6
sS'79'
p1476
g6
sS'78'
p1477
g6
ssS'81'
p1478
(dp1479
S'36'
p1480
g6
ssS'86'
p1481
(dp1482
S'20'
p1483
g6
sS'45'
p1484
g6
sS'37'
p1485
g6
sS'43'
p1486
g6
sS'64'
p1487
g6
sS'91'
p1488
g6
ssS'87'
p1489
(dp1490
S'71'
p1491
g6
ssS'84'
p1492
(dp1493
S'26'
p1494
g6
sS'28'
p1495
g6
sS'43'
p1496
g6
sS'34'
p1497
g6
sS'61'
p1498
g6
sS'65'
p1499
g6
sS'83'
p1500
g6
sS'97'
p1501
g6
ssS'85'
p1502
(dp1503
S'26'
p1504
g6
sS'92'
p1505
g6
ssg177
(dp1506
S'10'
p1507
g6
sg6
g6
sg50
g6
sg210
g6
sg224
g6
sg241
g6
sg195
g6
sg242
g6
sg197
g6
sg196
g6
ssg195
(dp1508
S'10'
p1509
g6
sg6
g6
sg50
g6
sg177
g6
sg210
g6
sg224
g6
sg241
g6
sg242
g6
sg197
g6
sg196
g6
ssS'39'
p1510
(dp1511
S'14'
p1512
g6
sS'28'
p1513
g6
sS'57'
p1514
g6
sS'37'
p1515
g6
sS'40'
p1516
g6
sS'65'
p1517
g6
ssS'38'
p1518
(dp1519
S'51'
p1520
g6
sS'48'
p1521
g210
sS'49'
p1522
g6
sS'33'
p1523
g6
sS'47'
p1524
g6
sS'57'
p1525
g6
sS'37'
p1526
g6
sS'36'
p1527
g177
sS'35'
p1528
g6
sS'34'
p1529
g210
sS'28'
p1530
g6
sS'46'
p1531
g6
sS'71'
p1532
g6
sS'82'
p1533
g6
sS'69'
p1534
g6
sS'50'
p1535
g6
ssS'33'
p1536
(dp1537
S'25'
p1538
g6
sS'38'
p1539
g6
sS'17'
p1540
g6
sS'37'
p1541
g6
sS'36'
p1542
g6
sS'35'
p1543
g6
sS'34'
p1544
g6
sS'41'
p1545
g6
ssS'32'
p1546
(dp1547
S'26'
p1548
g6
ssS'31'
p1549
(dp1550
S'24'
p1551
g6
sS'25'
p1552
g210
sS'26'
p1553
g6
sS'27'
p1554
g6
sS'19'
p1555
g6
sS'42'
p1556
g6
sS'44'
p1557
g6
sS'30'
p1558
g6
sS'28'
p1559
g177
sS'29'
p1560
g6
sS'53'
p1561
g6
sS'43'
p1562
g6
sS'99'
p1563
g6
sS'98'
p1564
g6
sS'71'
p1565
g6
sS'45'
p1566
g6
sS'52'
p1567
g6
sS'50'
p1568
g6
ssS'30'
p1569
(dp1570
S'24'
p1571
g6
sS'25'
p1572
g6
sS'26'
p1573
g6
sS'27'
p1574
g6
sS'17'
p1575
g6
sS'19'
p1576
g6
sS'31'
p1577
g6
sS'28'
p1578
g6
sS'29'
p1579
g6
ssS'37'
p1580
(dp1581
S'26'
p1582
g6
sS'38'
p1583
g6
sS'20'
p1584
g6
sS'33'
p1585
g6
sS'43'
p1586
g6
sS'57'
p1587
g6
sS'39'
p1588
g6
sS'28'
p1589
g6
sS'36'
p1590
g6
sS'35'
p1591
g6
sS'34'
p1592
g6
sS'65'
p1593
g6
sS'86'
p1594
g6
ssS'36'
p1595
(dp1596
S'38'
p1597
g177
sS'48'
p1598
g6
sS'49'
p1599
g6
sS'33'
p1600
g6
sS'47'
p1601
g6
sS'57'
p1602
g6
sS'37'
p1603
g6
sS'50'
p1604
g6
sS'35'
p1605
g6
sS'34'
p1606
g210
sS'46'
p1607
g6
sS'81'
p1608
g6
ssS'35'
p1609
(dp1610
S'38'
p1611
g6
sS'33'
p1612
g6
sS'37'
p1613
g6
sS'36'
p1614
g6
sS'34'
p1615
g210
sS'61'
p1616
g6
sS'62'
p1617
g6
ssS'34'
p1618
(dp1619
S'38'
p1620
g210
sS'43'
p1621
g6
sS'48'
p1622
g6
sS'49'
p1623
g6
sS'33'
p1624
g6
sS'47'
p1625
g6
sS'37'
p1626
g6
sS'36'
p1627
g210
sS'35'
p1628
g210
sS'50'
p1629
g6
sS'46'
p1630
g6
sS'62'
p1631
g210
sS'64'
p1632
g6
sS'65'
p1633
g6
sS'61'
p1634
g6
sS'83'
p1635
g6
sS'29'
p1636
g6
sS'84'
p1637
g6
sS'28'
p1638
g6
ssS'60'
p1639
(dp1640
S'26'
p1641
g6
sS'59'
p1642
g6
sS'63'
p1643
g6
sS'89'
p1644
g6
sS'67'
p1645
g6
sS'68'
p1646
g6
sS'69'
p1647
g210
ssS'61'
p1648
(dp1649
S'26'
p1650
g6
sS'19'
p1651
g6
sS'42'
p1652
g6
sS'28'
p1653
g6
sS'88'
p1654
g6
sS'35'
p1655
g6
sS'34'
p1656
g6
sS'62'
p1657
g6
sS'84'
p1658
g6
sS'94'
p1659
g6
sS'97'
p1660
g6
sS'65'
p1661
g6
ssS'62'
p1662
(dp1663
S'61'
p1664
g6
sS'29'
p1665
g6
sS'35'
p1666
g6
sS'34'
p1667
g210
ssS'63'
p1668
(dp1669
S'44'
p1670
g6
sS'28'
p1671
g6
sS'60'
p1672
g6
sS'66'
p1673
g6
sS'67'
p1674
g210
sS'68'
p1675
g210
sS'69'
p1676
g210
ssS'64'
p1677
(dp1678
S'91'
p1679
g6
sS'45'
p1680
g6
sS'86'
p1681
g6
sS'65'
p1682
g6
sS'34'
p1683
g6
ssS'65'
p1684
(dp1685
S'39'
p1686
g6
sS'28'
p1687
g6
sS'57'
p1688
g6
sS'37'
p1689
g6
sS'26'
p1690
g6
sS'34'
p1691
g6
sS'61'
p1692
g6
sS'64'
p1693
g6
sS'84'
p1694
g6
sS'97'
p1695
g6
ssS'66'
p1696
(dp1697
S'26'
p1698
g6
sS'23'
p1699
g6
sS'28'
p1700
g6
sS'75'
p1701
g6
sS'63'
p1702
g6
sS'67'
p1703
g6
sS'68'
p1704
g6
sS'69'
p1705
g6
ssS'67'
p1706
(dp1707
S'28'
p1708
g6
sS'60'
p1709
g6
sS'63'
p1710
g210
sS'66'
p1711
g6
sS'68'
p1712
g210
sS'69'
p1713
g210
ssS'68'
p1714
(dp1715
S'28'
p1716
g6
sS'60'
p1717
g6
sS'63'
p1718
g210
sS'66'
p1719
g6
sS'67'
p1720
g210
sS'69'
p1721
g210
ssS'69'
p1722
(dp1723
S'38'
p1724
g6
sS'71'
p1725
g6
sS'48'
p1726
g6
sS'51'
p1727
g6
sS'28'
p1728
g210
sS'60'
p1729
g210
sS'82'
p1730
g6
sS'63'
p1731
g210
sS'89'
p1732
g210
sS'66'
p1733
g6
sS'67'
p1734
g210
sS'68'
p1735
g210
sS'90'
p1736
g6
sS'79'
p1737
g6
sS'78'
p1738
g6
ssg210
(dp1739
S'10'
p1740
g6
sg6
g6
sg50
g6
sg177
g6
sg224
g6
sg241
g6
sg195
g6
sg242
g6
sg197
g6
sg196
g6
ssg242
(dp1741
S'10'
p1742
g6
sg6
g6
sg50
g6
sg177
g6
sg210
g6
sg224
g6
sg241
g6
sg195
g6
sg197
g6
sg196
g6
ssS'99'
p1743
(dp1744
S'98'
p1745
g6
sS'31'
p1746
g6
sS'28'
p1747
g210
sS'50'
p1748
g6
sS'54'
p1749
g6
ssS'98'
p1750
(dp1751
S'58'
p1752
g6
sS'31'
p1753
g6
sS'28'
p1754
g210
sS'50'
p1755
g6
sS'99'
p1756
g6
sS'90'
p1757
g6
sS'94'
p1758
g6
ssS'91'
p1759
(dp1760
S'86'
p1761
g6
sS'45'
p1762
g6
sS'64'
p1763
g6
ssS'90'
p1764
(dp1765
S'58'
p1766
g6
sS'28'
p1767
g6
sS'98'
p1768
g6
sS'89'
p1769
g6
sS'69'
p1770
g6
sS'94'
p1771
g6
sS'78'
p1772
g6
ssS'93'
p1773
(dp1774
S'47'
p1775
g6
ssS'92'
p1776
(dp1777
S'26'
p1778
g6
sS'23'
p1779
g6
sS'85'
p1780
g6
ssS'95'
p1781
(dp1782
S'77'
p1783
g6
sS'24'
p1784
g6
sS'14'
p1785
g6
sS'48'
p1786
g6
ssS'94'
p1787
(dp1788
S'58'
p1789
g6
sS'98'
p1790
g6
sS'19'
p1791
g6
sS'28'
p1792
g210
sS'42'
p1793
g6
sS'61'
p1794
g6
sS'88'
p1795
g6
sS'90'
p1796
g6
ssS'97'
p1797
(dp1798
S'61'
p1799
g6
sS'26'
p1800
g6
sS'28'
p1801
g6
sS'65'
p1802
g6
sS'84'
p1803
g6
ssS'96'
p1804
(dp1805
g50
g6
sS'56'
p1806
g210
sS'73'
p1807
g6
sS'23'
p1808
g6
ssS'11'
p1809
(dp1810
S'13'
p1811
g6
sS'12'
p1812
g6
sS'14'
p1813
g6
sS'17'
p1814
g6
ssS'10'
p1815
(dp1816
g6
g6
sg50
g6
sg177
g6
sg210
g6
sg224
g6
sg241
g6
sg195
g6
sg242
g6
sg197
g6
sg196
g6
ssS'13'
p1817
(dp1818
S'11'
p1819
g6
sS'12'
p1820
g6
sS'73'
p1821
g6
sS'14'
p1822
g6
sS'71'
p1823
g6
ssS'12'
p1824
(dp1825
S'11'
p1826
g6
sS'13'
p1827
g6
sS'14'
p1828
g6
ssS'15'
p1829
(dp1830
S'75'
p1831
g6
sS'23'
p1832
g6
sS'16'
p1833
g210
ssS'14'
p1834
(dp1835
S'11'
p1836
g6
sS'13'
p1837
g6
sS'12'
p1838
g6
sS'48'
p1839
g6
sS'39'
p1840
g6
sS'72'
p1841
g6
sS'95'
p1842
g6
ssS'17'
p1843
(dp1844
S'11'
p1845
g6
sS'25'
p1846
g6
sS'30'
p1847
g6
sS'33'
p1848
g6
sS'41'
p1849
g6
ssS'16'
p1850
(dp1851
S'75'
p1852
g6
sS'15'
p1853
g210
sS'23'
p1854
g6
ssS'19'
p1855
(dp1856
S'24'
p1857
g6
sS'25'
p1858
g6
sS'26'
p1859
g6
sS'27'
p1860
g6
sS'20'
p1861
g6
sS'21'
p1862
g6
sS'22'
p1863
g6
sS'18'
p1864
g6
sS'31'
p1865
g6
sS'30'
p1866
g6
sS'28'
p1867
g210
sS'29'
p1868
g6
sS'42'
p1869
g6
sS'61'
p1870
g6
sS'88'
p1871
g6
sS'94'
p1872
g6
ssS'18'
p1873
(dp1874
S'19'
p1875
g6
sS'20'
p1876
g6
sS'21'
p1877
g210
sS'22'
p1878
g6
ssS'48'
p1879
(dp1880
S'38'
p1881
g210
sS'14'
p1882
g6
sS'49'
p1883
g6
sS'46'
p1884
g6
sS'47'
p1885
g6
sS'51'
p1886
g6
sS'50'
p1887
g6
sS'36'
p1888
g6
sS'71'
p1889
g6
sS'82'
p1890
g6
sS'69'
p1891
g6
sS'34'
p1892
g6
sS'95'
p1893
g6
sS'28'
p1894
g6
ssS'49'
p1895
(dp1896
S'38'
p1897
g6
sS'48'
p1898
g6
sS'46'
p1899
g6
sS'47'
p1900
g6
sS'50'
p1901
g6
sS'36'
p1902
g6
sS'34'
p1903
g6
ssS'46'
p1904
(dp1905
S'38'
p1906
g6
sS'48'
p1907
g6
sS'49'
p1908
g6
sS'47'
p1909
g6
sS'50'
p1910
g6
sS'36'
p1911
g6
sS'74'
p1912
g6
sS'34'
p1913
g6
ssS'47'
p1914
(dp1915
S'25'
p1916
g6
sS'38'
p1917
g6
sS'48'
p1918
g6
sS'49'
p1919
g6
sS'46'
p1920
g6
sS'50'
p1921
g6
sS'36'
p1922
g6
sS'55'
p1923
g6
sS'93'
p1924
g6
sS'34'
p1925
g6
ssS'44'
p1926
(dp1927
S'63'
p1928
g6
sS'31'
p1929
g6
sS'45'
p1930
g6
sS'42'
p1931
g6
sS'43'
p1932
g6
ssS'45'
p1933
(dp1934
S'31'
p1935
g6
sS'42'
p1936
g6
sS'43'
p1937
g6
sS'64'
p1938
g6
sS'91'
p1939
g6
sS'86'
p1940
g6
sS'44'
p1941
g6
ssS'42'
p1942
(dp1943
S'19'
p1944
g6
sS'31'
p1945
g6
sS'45'
p1946
g6
sS'28'
p1947
g6
sS'43'
p1948
g6
sS'94'
p1949
g6
sS'61'
p1950
g6
sS'88'
p1951
g6
sS'44'
p1952
g6
ssS'43'
p1953
(dp1954
S'20'
p1955
g6
sS'28'
p1956
g6
sS'44'
p1957
g6
sS'45'
p1958
g6
sS'42'
p1959
g6
sS'34'
p1960
g6
sS'37'
p1961
g6
sS'83'
p1962
g6
sS'86'
p1963
g6
sS'31'
p1964
g6
sS'84'
p1965
g6
ssS'40'
p1966
(dp1967
S'39'
p1968
g6
sS'28'
p1969
g6
ssS'41'
p1970
(dp1971
S'33'
p1972
g6
sS'25'
p1973
g6
sS'17'
p1974
g6
ssg6
(dp1975
S'10'
p1976
g6
sg50
g6
sg177
g6
sg210
g6
sg224
g6
sg241
g6
sg195
g6
sg242
g6
sg197
g6
sg196
g6
ssg224
(dp1977
S'10'
p1978
g6
sS'56'
p1979
g6
sg6
g6
sg50
g6
sg177
g6
sg210
g6
sg241
g6
sg195
g6
sg242
g6
sg197
g6
sg196
g6
ssg197
(dp1980
S'10'
p1981
g6
sg6
g6
sg50
g6
sg177
g6
sg210
g6
sg224
g6
sg241
g6
sg195
g6
sg242
g6
sg196
g6
ssS'77'
p1982
(dp1983
S'24'
p1984
g6
sS'52'
p1985
g6
sS'76'
p1986
g6
sS'80'
p1987
g6
sS'95'
p1988
g6
sS'79'
p1989
g6
sS'78'
p1990
g6
ssS'76'
p1991
(dp1992
S'77'
p1993
g6
sS'80'
p1994
g6
sS'78'
p1995
g6
sS'79'
p1996
g6
sS'52'
p1997
g210
ssS'75'
p1998
(dp1999
S'26'
p2000
g6
sS'16'
p2001
g6
sS'15'
p2002
g6
sS'66'
p2003
g6
sS'23'
p2004
g210
ssS'74'
p2005
(dp2006
S'46'
p2007
g6
sS'52'
p2008
g6
ssS'73'
p2009
(dp2010
S'25'
p2011
g6
sS'13'
p2012
g6
sS'59'
p2013
g6
sS'56'
p2014
g6
sS'52'
p2015
g6
sS'72'
p2016
g6
sS'71'
p2017
g210
sS'70'
p2018
g6
sS'82'
p2019
g6
sS'83'
p2020
g6
sS'96'
p2021
g6
ssS'72'
p2022
(dp2023
S'25'
p2024
g6
sS'73'
p2025
g6
sS'14'
p2026
g6
sS'71'
p2027
g6
sS'70'
p2028
g6
ssS'71'
p2029
(dp2030
S'25'
p2031
g6
sS'13'
p2032
g6
sS'38'
p2033
g6
sS'48'
p2034
g6
sS'83'
p2035
g6
sS'28'
p2036
g6
sS'31'
p2037
g6
sS'51'
p2038
g6
sS'53'
p2039
g6
sS'52'
p2040
g6
sS'73'
p2041
g210
sS'72'
p2042
g6
sS'70'
p2043
g6
sS'82'
p2044
g6
sS'69'
p2045
g6
sS'87'
p2046
g6
ssS'70'
p2047
(dp2048
S'25'
p2049
g6
sS'73'
p2050
g6
sS'72'
p2051
g6
sS'71'
p2052
g6
ssS'79'
p2053
(dp2054
S'52'
p2055
g6
sS'77'
p2056
g6
sS'76'
p2057
g6
sS'69'
p2058
g6
sS'80'
p2059
g6
sS'78'
p2060
g6
ssS'78'
p2061
(dp2062
S'52'
p2063
g6
sS'77'
p2064
g6
sS'76'
p2065
g6
sS'89'
p2066
g6
sS'69'
p2067
g6
sS'90'
p2068
g6
sS'80'
p2069
g6
sS'79'
p2070
g6
sssg177
(dp2071
S'24'
p2072
(dp2073
S'103'
p2074
g210
sS'236'
p2075
g6
sS'124'
p2076
g6
sS'125'
p2077
g6
ssS'25'
p2078
(dp2079
S'113'
p2080
g210
sS'133'
p2081
g6
sS'130'
p2082
g210
sS'124'
p2083
g241
sS'125'
p2084
g6
sS'135'
p2085
g6
sS'134'
p2086
g6
sS'103'
p2087
g224
sS'187'
p2088
g210
sS'136'
p2089
g6
ssS'26'
p2090
(dp2091
S'171'
p2092
g6
sS'184'
p2093
g6
sS'210'
p2094
g6
sS'211'
p2095
g6
sS'168'
p2096
g6
sS'185'
p2097
g6
sS'209'
p2098
g6
sS'159'
p2099
g6
sS'130'
p2100
g6
sS'124'
p2101
g6
sS'125'
p2102
g6
sS'126'
p2103
g6
sS'127'
p2104
g6
sS'128'
p2105
g6
sS'103'
p2106
g210
sS'239'
p2107
g6
sS'170'
p2108
g6
sS'129'
p2109
g6
sS'169'
p2110
g6
ssS'27'
p2111
(dp2112
S'103'
p2113
g210
sS'124'
p2114
g210
sS'125'
p2115
g6
ssS'20'
p2116
(dp2117
S'115'
p2118
g6
sS'182'
p2119
g6
sS'117'
p2120
g6
sS'116'
p2121
g6
sS'221'
p2122
g6
ssS'21'
p2123
(dp2124
S'115'
p2125
g210
sS'117'
p2126
g210
sS'116'
p2127
g210
ssS'22'
p2128
(dp2129
S'207'
p2130
g6
sS'159'
p2131
g6
sS'115'
p2132
g6
sS'117'
p2133
g6
sS'116'
p2134
g6
sS'103'
p2135
g6
sS'225'
p2136
g6
ssS'23'
p2137
(dp2138
S'182'
p2139
g6
sS'157'
p2140
g6
sS'210'
p2141
g6
sS'211'
p2142
g6
sS'209'
p2143
g6
sS'222'
p2144
g6
sS'120'
p2145
g6
sS'121'
p2146
g6
sS'122'
p2147
g6
sS'123'
p2148
g6
sS'235'
p2149
g6
sS'103'
p2150
g6
sS'100'
p2151
g6
sS'224'
p2152
g6
sS'119'
p2153
g6
sS'118'
p2154
g6
sS'221'
p2155
g6
ssS'28'
p2156
(dp2157
S'216'
p2158
g6
sS'147'
p2159
g177
sS'215'
p2160
g6
sS'155'
p2161
g6
sS'154'
p2162
g6
sS'157'
p2163
g6
sS'156'
p2164
g6
sS'158'
p2165
g210
sS'238'
p2166
g6
sS'148'
p2167
g6
sS'234'
p2168
g6
sS'130'
p2169
g224
sS'124'
p2170
g241
sS'125'
p2171
g177
sS'186'
p2172
g6
sS'128'
p2173
g6
sS'103'
p2174
S'11'
p2175
sS'235'
p2176
g6
sS'170'
p2177
g6
sS'220'
p2178
g6
ssS'29'
p2179
(dp2180
S'103'
p2181
g6
sS'130'
p2182
g6
sS'124'
p2183
g6
sS'125'
p2184
g210
ssg50
(dp2185
S'182'
p2186
g6
sS'102'
p2187
g6
sS'103'
p2188
g6
sS'100'
p2189
g6
sS'101'
p2190
g6
sS'221'
p2191
g6
ssg241
(dp2192
S'102'
p2193
g6
sS'103'
p2194
g6
sS'100'
p2195
g6
sS'101'
p2196
g6
ssg196
(dp2197
S'102'
p2198
g6
sS'103'
p2199
g6
sS'100'
p2200
g6
sS'101'
p2201
g6
ssS'59'
p2202
(dp2203
S'152'
p2204
g6
sS'202'
p2205
g6
sS'168'
p2206
g6
sS'169'
p2207
g6
sS'103'
p2208
g6
sS'220'
p2209
g6
sS'171'
p2210
g6
sS'170'
p2211
g6
ssS'58'
p2212
(dp2213
S'130'
p2214
g6
sS'165'
p2215
g6
sS'164'
p2216
g6
sS'103'
p2217
g210
sS'166'
p2218
g6
sS'167'
p2219
g6
ssS'55'
p2220
(dp2221
S'155'
p2222
g6
sS'154'
p2223
g6
sS'157'
p2224
g6
sS'156'
p2225
g6
sS'158'
p2226
g6
sS'124'
p2227
g6
sS'187'
p2228
g6
sS'113'
p2229
g6
sS'128'
p2230
g6
sS'103'
p2231
g210
ssS'54'
p2232
(dp2233
S'155'
p2234
g6
sS'154'
p2235
g6
sS'157'
p2236
g6
sS'156'
p2237
g6
sS'158'
p2238
g210
sS'234'
p2239
g6
sS'128'
p2240
g6
sS'103'
p2241
g210
ssS'57'
p2242
(dp2243
S'170'
p2244
g6
sS'106'
p2245
g6
sS'107'
p2246
g6
sS'162'
p2247
g6
sS'163'
p2248
g6
ssS'56'
p2249
(dp2250
S'159'
p2251
g6
sS'182'
p2252
g6
sS'130'
p2253
g6
sS'237'
p2254
g6
sS'160'
p2255
g6
sS'161'
p2256
g6
sS'221'
p2257
g6
ssS'51'
p2258
(dp2259
S'151'
p2260
g6
sS'216'
p2261
g6
sS'153'
p2262
g6
sS'152'
p2263
g6
sS'147'
p2264
g6
sS'130'
p2265
g6
sS'215'
p2266
g6
ssS'50'
p2267
(dp2268
S'150'
p2269
g6
sS'217'
p2270
g6
sS'149'
p2271
g6
sS'133'
p2272
g6
sS'130'
p2273
g6
sS'136'
p2274
g6
sS'134'
p2275
g6
sS'103'
p2276
g6
sS'107'
p2277
g6
ssS'53'
p2278
(dp2279
S'151'
p2280
g6
sS'153'
p2281
g6
sS'152'
p2282
g6
sS'130'
p2283
g6
ssS'52'
p2284
(dp2285
S'151'
p2286
g6
sS'153'
p2287
g6
sS'152'
p2288
g210
sS'212'
p2289
g6
sS'207'
p2290
g6
sS'159'
p2291
g6
sS'225'
p2292
g6
sS'130'
p2293
g6
sS'202'
p2294
g6
sS'102'
p2295
g6
sS'103'
p2296
g241
sS'100'
p2297
g6
sS'223'
p2298
g6
sS'222'
p2299
g6
sS'220'
p2300
g6
ssS'88'
p2301
(dp2302
S'103'
p2303
g210
sS'124'
p2304
g6
sS'125'
p2305
g6
sS'235'
p2306
g6
ssS'89'
p2307
(dp2308
S'226'
p2309
g6
sS'130'
p2310
g6
sS'186'
p2311
g6
sS'147'
p2312
g6
ssS'82'
p2313
(dp2314
S'216'
p2315
g6
sS'147'
p2316
g6
sS'215'
p2317
g6
sS'130'
p2318
g6
sS'152'
p2319
g6
sS'103'
p2320
g6
sS'202'
p2321
g6
sS'220'
p2322
g6
ssS'83'
p2323
(dp2324
S'152'
p2325
g210
sS'207'
p2326
g6
sS'157'
p2327
g6
sS'159'
p2328
g6
sS'202'
p2329
g6
sS'124'
p2330
g6
sS'125'
p2331
g6
sS'103'
p2332
g241
sS'225'
p2333
g6
sS'220'
p2334
g210
ssS'80'
p2335
(dp2336
S'102'
p2337
g6
sS'103'
p2338
g6
sS'100'
p2339
g6
sS'237'
p2340
g6
sS'212'
p2341
g6
ssS'81'
p2342
(dp2343
S'230'
p2344
g6
sS'214'
p2345
g6
sS'124'
p2346
g6
sS'213'
p2347
g6
sS'229'
p2348
g6
ssS'86'
p2349
(dp2350
S'182'
p2351
g210
sS'221'
p2352
g210
ssS'87'
p2353
(dp2354
S'182'
p2355
g6
sS'236'
p2356
g6
sS'232'
p2357
g6
sS'221'
p2358
g6
ssS'84'
p2359
(dp2360
S'239'
p2361
g6
sS'103'
p2362
g6
sS'124'
p2363
g6
sS'125'
p2364
g6
sS'220'
p2365
g6
ssS'85'
p2366
(dp2367
S'212'
p2368
g210
sS'159'
p2369
g6
sS'103'
p2370
g177
sS'224'
p2371
g6
sS'223'
p2372
g6
sS'222'
p2373
g6
ssg177
(dp2374
S'102'
p2375
g6
sS'103'
p2376
g6
sS'100'
p2377
g6
sS'101'
p2378
g6
ssg195
(dp2379
S'102'
p2380
g6
sS'103'
p2381
g6
sS'100'
p2382
g6
sS'101'
p2383
g6
ssS'39'
p2384
(dp2385
S'133'
p2386
g6
sS'132'
p2387
g6
sS'131'
p2388
g6
sS'130'
p2389
g210
sS'170'
p2390
g6
ssS'38'
p2391
(dp2392
S'216'
p2393
g6
sS'150'
p2394
g6
sS'215'
p2395
g6
sS'147'
p2396
g6
sS'149'
p2397
g6
sS'130'
p2398
g6
sS'124'
p2399
g6
sS'125'
p2400
g6
sS'103'
p2401
g6
sS'106'
p2402
g6
sS'107'
p2403
g210
sS'162'
p2404
g6
sS'163'
p2405
g6
ssS'33'
p2406
(dp2407
S'133'
p2408
g6
sS'130'
p2409
g6
sS'124'
p2410
g210
sS'125'
p2411
g6
sS'135'
p2412
g6
sS'134'
p2413
g6
sS'103'
p2414
g210
sS'136'
p2415
g6
ssS'32'
p2416
(dp2417
S'128'
p2418
g6
sS'129'
p2419
g6
sS'126'
p2420
g210
sS'127'
p2421
g210
ssS'31'
p2422
(dp2423
S'140'
p2424
g6
sS'137'
p2425
g6
sS'130'
p2426
g177
sS'124'
p2427
g6
sS'125'
p2428
g6
sS'103'
p2429
g177
sS'139'
p2430
g6
sS'138'
p2431
g6
ssS'30'
p2432
(dp2433
S'103'
p2434
g6
sS'124'
p2435
g6
sS'125'
p2436
g6
sS'240'
p2437
g6
ssS'37'
p2438
(dp2439
S'182'
p2440
g6
sS'130'
p2441
g6
sS'124'
p2442
g6
sS'125'
p2443
g6
sS'184'
p2444
g6
sS'185'
p2445
g6
sS'103'
p2446
g6
sS'221'
p2447
g6
sS'170'
p2448
g6
ssS'36'
p2449
(dp2450
S'150'
p2451
g6
sS'230'
p2452
g6
sS'149'
p2453
g6
sS'124'
p2454
g6
sS'125'
p2455
g6
sS'229'
p2456
g6
sS'103'
p2457
g6
sS'106'
p2458
g6
sS'107'
p2459
g210
sS'162'
p2460
g6
sS'163'
p2461
g6
ssS'35'
p2462
(dp2463
S'124'
p2464
g6
sS'125'
p2465
g6
sS'176'
p2466
g6
sS'177'
p2467
g6
sS'103'
p2468
g6
sS'175'
p2469
g6
sS'107'
p2470
g6
ssS'34'
p2471
(dp2472
S'150'
p2473
g6
sS'130'
p2474
g6
sS'149'
p2475
g6
sS'182'
p2476
g6
sS'183'
p2477
g6
sS'180'
p2478
g6
sS'181'
p2479
g6
sS'124'
p2480
g210
sS'125'
p2481
g177
sS'176'
p2482
g6
sS'177'
p2483
g6
sS'103'
p2484
g210
sS'175'
p2485
g6
sS'107'
p2486
g210
sS'220'
p2487
g6
ssS'60'
p2488
(dp2489
S'147'
p2490
g210
sS'130'
p2491
g210
sS'168'
p2492
g6
sS'169'
p2493
g6
sS'186'
p2494
g210
sS'171'
p2495
g6
sS'170'
p2496
g6
ssS'61'
p2497
(dp2498
S'235'
p2499
g6
sS'125'
p2500
g6
sS'103'
p2501
g6
sS'177'
p2502
g6
sS'176'
p2503
g6
sS'175'
p2504
g6
sS'107'
p2505
g6
sS'239'
p2506
g6
ssS'62'
p2507
(dp2508
S'130'
p2509
g6
sS'125'
p2510
g6
sS'177'
p2511
g6
sS'176'
p2512
g6
sS'175'
p2513
g6
sS'107'
p2514
g6
ssS'63'
p2515
(dp2516
S'147'
p2517
g210
sS'154'
p2518
g6
sS'130'
p2519
g210
sS'186'
p2520
g210
sS'179'
p2521
g6
sS'178'
p2522
g6
sS'103'
p2523
g6
ssS'64'
p2524
(dp2525
S'182'
p2526
g210
sS'183'
p2527
g6
sS'180'
p2528
g6
sS'181'
p2529
g6
sS'221'
p2530
g6
ssS'65'
p2531
(dp2532
S'182'
p2533
g6
sS'183'
p2534
g6
sS'180'
p2535
g6
sS'181'
p2536
g6
sS'239'
p2537
g6
sS'170'
p2538
g6
ssS'66'
p2539
(dp2540
S'147'
p2541
g6
sS'210'
p2542
g6
sS'211'
p2543
g6
sS'209'
p2544
g6
sS'130'
p2545
g6
sS'186'
p2546
g6
ssS'67'
p2547
(dp2548
S'147'
p2549
g210
sS'130'
p2550
g210
sS'186'
p2551
g210
ssS'68'
p2552
(dp2553
S'147'
p2554
g210
sS'130'
p2555
g210
sS'186'
p2556
g210
ssS'69'
p2557
(dp2558
S'216'
p2559
g6
sS'147'
p2560
g241
sS'215'
p2561
g6
sS'130'
p2562
g241
sS'186'
p2563
g177
sS'235'
p2564
g6
sS'226'
p2565
g6
ssg210
(dp2566
S'102'
p2567
g6
sS'103'
p2568
g6
sS'100'
p2569
g6
sS'101'
p2570
g6
ssg242
(dp2571
S'102'
p2572
g6
sS'103'
p2573
g6
sS'100'
p2574
g6
sS'101'
p2575
g6
ssS'99'
p2576
(dp2577
S'234'
p2578
g6
sS'103'
p2579
g210
sS'130'
p2580
g6
sS'158'
p2581
g6
ssS'98'
p2582
(dp2583
S'103'
p2584
g210
sS'130'
p2585
g6
ssS'91'
p2586
(dp2587
S'227'
p2588
g6
sS'182'
p2589
g6
sS'221'
p2590
g6
ssS'90'
p2591
(dp2592
S'226'
p2593
g6
sS'103'
p2594
g6
ssS'93'
p2595
(dp2596
S'176'
p2597
g6
sS'230'
p2598
g6
sS'107'
p2599
g6
sS'229'
p2600
g6
sS'114'
p2601
g6
ssS'92'
p2602
(dp2603
S'159'
p2604
g6
sS'103'
p2605
g210
sS'224'
p2606
g6
sS'222'
p2607
g6
sS'157'
p2608
g6
ssS'95'
p2609
(dp2610
S'103'
p2611
g6
sS'236'
p2612
g6
sS'130'
p2613
g6
sS'219'
p2614
g6
ssS'94'
p2615
(dp2616
S'235'
p2617
g6
sS'125'
p2618
g6
sS'103'
p2619
g210
ssS'97'
p2620
(dp2621
S'238'
p2622
g6
sS'239'
p2623
g6
ssS'96'
p2624
(dp2625
S'182'
p2626
g6
sS'130'
p2627
g6
sS'221'
p2628
g6
ssS'11'
p2629
(dp2630
S'114'
p2631
g6
sS'106'
p2632
g210
sS'107'
p2633
g210
sS'104'
p2634
g6
sS'105'
p2635
g6
ssS'10'
p2636
(dp2637
S'102'
p2638
g6
sS'103'
p2639
g6
sS'100'
p2640
g6
sS'101'
p2641
g6
ssS'13'
p2642
(dp2643
S'154'
p2644
g6
sS'158'
p2645
g6
sS'234'
p2646
g6
sS'103'
p2647
g6
sS'106'
p2648
g6
sS'107'
p2649
g6
sS'104'
p2650
g6
sS'105'
p2651
g6
ssS'12'
p2652
(dp2653
S'218'
p2654
g6
sS'219'
p2655
g6
sS'130'
p2656
g6
sS'106'
p2657
g6
sS'107'
p2658
g6
sS'104'
p2659
g6
sS'105'
p2660
g6
ssS'15'
p2661
(dp2662
S'108'
p2663
g6
sS'109'
p2664
g6
sS'111'
p2665
g6
sS'110'
p2666
g6
sS'113'
p2667
g6
sS'112'
p2668
g6
sS'235'
p2669
g6
ssS'14'
p2670
(dp2671
S'159'
p2672
g6
sS'219'
p2673
g6
sS'133'
p2674
g6
sS'130'
p2675
g210
sS'105'
p2676
g210
sS'106'
p2677
g6
sS'107'
p2678
g6
sS'104'
p2679
g6
sS'233'
p2680
g6
ssS'17'
p2681
(dp2682
S'142'
p2683
g6
sS'141'
p2684
g6
sS'133'
p2685
g6
sS'114'
p2686
g6
sS'130'
p2687
g6
sS'124'
p2688
g6
sS'136'
p2689
g6
sS'135'
p2690
g6
sS'134'
p2691
g6
sS'103'
p2692
g6
sS'106'
p2693
g6
sS'107'
p2694
g6
sS'240'
p2695
g6
ssS'16'
p2696
(dp2697
S'108'
p2698
g6
sS'109'
p2699
g6
sS'111'
p2700
g6
sS'110'
p2701
g6
sS'113'
p2702
g6
sS'112'
p2703
g6
sS'235'
p2704
g6
ssS'19'
p2705
(dp2706
S'115'
p2707
g6
sS'117'
p2708
g6
sS'116'
p2709
g6
sS'124'
p2710
g6
sS'125'
p2711
g210
sS'235'
p2712
g6
sS'103'
p2713
g210
ssS'18'
p2714
(dp2715
S'115'
p2716
g210
sS'117'
p2717
g210
sS'116'
p2718
g210
ssS'48'
p2719
(dp2720
S'216'
p2721
g6
sS'150'
p2722
g6
sS'215'
p2723
g6
sS'147'
p2724
g6
sS'149'
p2725
g6
sS'130'
p2726
g210
sS'219'
p2727
g6
sS'107'
p2728
g6
ssS'49'
p2729
(dp2730
S'150'
p2731
g6
sS'107'
p2732
g210
sS'149'
p2733
g6
sS'174'
p2734
g6
sS'173'
p2735
g6
sS'172'
p2736
g6
ssS'46'
p2737
(dp2738
S'150'
p2739
g6
sS'202'
p2740
g6
sS'205'
p2741
g6
sS'207'
p2742
g6
sS'206'
p2743
g6
sS'159'
p2744
g6
sS'208'
p2745
g6
sS'149'
p2746
g6
sS'103'
p2747
g6
sS'107'
p2748
g6
ssS'47'
p2749
(dp2750
S'150'
p2751
g6
sS'149'
p2752
g6
sS'114'
p2753
g6
sS'124'
p2754
g6
sS'187'
p2755
g6
sS'113'
p2756
g6
sS'103'
p2757
g6
sS'176'
p2758
g6
sS'107'
p2759
g210
ssS'44'
p2760
(dp2761
S'154'
p2762
g6
sS'140'
p2763
g6
sS'137'
p2764
g6
sS'179'
p2765
g6
sS'178'
p2766
g6
sS'103'
p2767
g6
sS'139'
p2768
g6
sS'138'
p2769
g6
ssS'45'
p2770
(dp2771
S'140'
p2772
g6
sS'182'
p2773
g6
sS'137'
p2774
g6
sS'139'
p2775
g6
sS'138'
p2776
g6
sS'221'
p2777
g6
ssS'42'
p2778
(dp2779
S'140'
p2780
g6
sS'137'
p2781
g6
sS'125'
p2782
g6
sS'103'
p2783
g6
sS'235'
p2784
g6
sS'139'
p2785
g6
sS'138'
p2786
g6
ssS'43'
p2787
(dp2788
S'124'
p2789
g6
sS'140'
p2790
g6
sS'209'
p2791
g6
sS'182'
p2792
g6
sS'137'
p2793
g6
sS'125'
p2794
g6
sS'103'
p2795
g6
sS'139'
p2796
g6
sS'138'
p2797
g6
sS'221'
p2798
g6
sS'220'
p2799
g6
ssS'40'
p2800
(dp2801
S'132'
p2802
g6
sS'131'
p2803
g6
sS'130'
p2804
g6
sS'103'
p2805
g6
ssS'41'
p2806
(dp2807
S'133'
p2808
g6
sS'130'
p2809
g210
sS'124'
p2810
g6
sS'136'
p2811
g6
sS'135'
p2812
g6
sS'134'
p2813
g6
sS'103'
p2814
g6
ssg6
(dp2815
S'102'
p2816
g6
sS'103'
p2817
g6
sS'100'
p2818
g6
sS'101'
p2819
g6
ssg224
(dp2820
S'159'
p2821
g6
sS'102'
p2822
g6
sS'103'
p2823
g6
sS'100'
p2824
g6
sS'101'
p2825
g6
sS'160'
p2826
g6
sS'161'
p2827
g6
ssg197
(dp2828
S'102'
p2829
g6
sS'103'
p2830
g6
sS'100'
p2831
g6
sS'101'
p2832
g6
ssS'77'
p2833
(dp2834
S'102'
p2835
g6
sS'103'
p2836
g210
sS'100'
p2837
g6
sS'212'
p2838
g6
sS'236'
p2839
g6
ssS'76'
p2840
(dp2841
S'212'
p2842
g6
sS'102'
p2843
g6
sS'103'
p2844
g210
sS'100'
p2845
g6
sS'223'
p2846
g6
sS'222'
p2847
g6
ssS'75'
p2848
(dp2849
S'209'
p2850
g6
sS'235'
p2851
g6
sS'210'
p2852
g6
sS'211'
p2853
g6
ssS'74'
p2854
(dp2855
S'205'
p2856
g6
sS'207'
p2857
g210
sS'206'
p2858
g6
sS'159'
p2859
g210
sS'208'
p2860
g6
sS'103'
p2861
g210
sS'225'
p2862
g6
ssS'73'
p2863
(dp2864
S'202'
p2865
g6
sS'154'
p2866
g6
sS'158'
p2867
g6
sS'191'
p2868
g6
sS'190'
p2869
g6
sS'192'
p2870
g6
sS'130'
p2871
g6
sS'124'
p2872
g6
sS'187'
p2873
g6
sS'113'
p2874
g6
sS'234'
p2875
g6
sS'103'
p2876
g177
sS'152'
p2877
g6
sS'107'
p2878
g6
sS'220'
p2879
g6
ssS'72'
p2880
(dp2881
S'159'
p2882
g6
sS'124'
p2883
g6
sS'187'
p2884
g6
sS'113'
p2885
g6
sS'103'
p2886
g6
sS'105'
p2887
g6
sS'233'
p2888
g6
ssS'71'
p2889
(dp2890
S'216'
p2891
g6
sS'147'
p2892
g6
sS'215'
p2893
g6
sS'154'
p2894
g6
sS'157'
p2895
g6
sS'158'
p2896
g6
sS'182'
p2897
g6
sS'130'
p2898
g210
sS'124'
p2899
g6
sS'187'
p2900
g6
sS'113'
p2901
g6
sS'234'
p2902
g6
sS'103'
p2903
g177
sS'152'
p2904
g6
sS'221'
p2905
g6
ssS'70'
p2906
(dp2907
S'103'
p2908
g6
sS'124'
p2909
g210
sS'187'
p2910
g6
sS'113'
p2911
g6
ssS'79'
p2912
(dp2913
S'102'
p2914
g6
sS'103'
p2915
g6
sS'100'
p2916
g6
sS'212'
p2917
g6
sS'235'
p2918
g6
ssS'78'
p2919
(dp2920
S'102'
p2921
g6
sS'103'
p2922
g6
sS'100'
p2923
g6
sS'212'
p2924
g6
sS'226'
p2925
g6
sssg210
(dp2926
S'216'
p2927
(dp2928
S'38'
p2929
g6
sS'48'
p2930
g6
sS'51'
p2931
g6
sS'28'
p2932
g6
sS'71'
p2933
g6
sS'82'
p2934
g6
sS'69'
p2935
g6
ssS'217'
p2936
(dp2937
S'50'
p2938
g6
ssS'214'
p2939
(dp2940
S'81'
p2941
g6
ssS'215'
p2942
(dp2943
S'38'
p2944
g6
sS'48'
p2945
g6
sS'51'
p2946
g6
sS'28'
p2947
g6
sS'71'
p2948
g6
sS'82'
p2949
g6
sS'69'
p2950
g6
ssS'212'
p2951
(dp2952
S'52'
p2953
g6
sS'77'
p2954
g6
sS'76'
p2955
g6
sS'80'
p2956
g6
sS'85'
p2957
g210
sS'79'
p2958
g6
sS'78'
p2959
g6
ssS'213'
p2960
(dp2961
S'81'
p2962
g6
ssS'210'
p2963
(dp2964
S'75'
p2965
g6
sS'26'
p2966
g6
sS'66'
p2967
g6
sS'23'
p2968
g6
ssS'211'
p2969
(dp2970
S'75'
p2971
g6
sS'26'
p2972
g6
sS'66'
p2973
g6
sS'23'
p2974
g6
ssS'218'
p2975
(dp2976
S'12'
p2977
g6
ssS'219'
p2978
(dp2979
S'12'
p2980
g6
sS'95'
p2981
g6
sS'14'
p2982
g6
sS'48'
p2983
g6
ssS'133'
p2984
(dp2985
S'25'
p2986
g6
sS'39'
p2987
g6
sS'14'
p2988
g6
sS'17'
p2989
g6
sS'33'
p2990
g6
sS'50'
p2991
g6
sS'41'
p2992
g6
ssS'132'
p2993
(dp2994
S'39'
p2995
g6
sS'40'
p2996
g6
ssS'131'
p2997
(dp2998
S'39'
p2999
g6
sS'40'
p3000
g6
ssS'130'
p3001
(dp3002
S'51'
p3003
g6
sS'60'
p3004
g210
sS'68'
p3005
g210
sS'62'
p3006
g6
sS'63'
p3007
g210
sS'66'
p3008
g6
sS'67'
p3009
g210
sS'82'
p3010
g6
sS'69'
p3011
g241
sS'52'
p3012
g6
sS'25'
p3013
g210
sS'26'
p3014
g6
sS'48'
p3015
g210
sS'28'
p3016
g224
sS'29'
p3017
g6
sS'40'
p3018
g6
sS'41'
p3019
g210
sS'96'
p3020
g6
sS'99'
p3021
g6
sS'98'
p3022
g6
sS'12'
p3023
g6
sS'73'
p3024
g6
sS'71'
p3025
g210
sS'95'
p3026
g6
sS'14'
p3027
g210
sS'39'
p3028
g210
sS'38'
p3029
g6
sS'58'
p3030
g6
sS'17'
p3031
g6
sS'33'
p3032
g6
sS'31'
p3033
g177
sS'56'
p3034
g6
sS'37'
p3035
g6
sS'50'
p3036
g6
sS'53'
p3037
g6
sS'34'
p3038
g6
sS'89'
p3039
g6
ssS'137'
p3040
(dp3041
S'31'
p3042
g6
sS'44'
p3043
g6
sS'45'
p3044
g6
sS'42'
p3045
g6
sS'43'
p3046
g6
ssS'136'
p3047
(dp3048
S'33'
p3049
g6
sS'25'
p3050
g6
sS'50'
p3051
g6
sS'17'
p3052
g6
sS'41'
p3053
g6
ssS'135'
p3054
(dp3055
S'33'
p3056
g6
sS'25'
p3057
g6
sS'17'
p3058
g6
sS'41'
p3059
g6
ssS'134'
p3060
(dp3061
S'33'
p3062
g6
sS'25'
p3063
g6
sS'50'
p3064
g6
sS'17'
p3065
g6
sS'41'
p3066
g6
ssS'139'
p3067
(dp3068
S'31'
p3069
g6
sS'44'
p3070
g6
sS'45'
p3071
g6
sS'42'
p3072
g6
sS'43'
p3073
g6
ssS'138'
p3074
(dp3075
S'31'
p3076
g6
sS'44'
p3077
g6
sS'45'
p3078
g6
sS'42'
p3079
g6
sS'43'
p3080
g6
ssS'225'
p3081
(dp3082
S'83'
p3083
g6
sS'74'
p3084
g6
sS'22'
p3085
g6
sS'52'
p3086
g6
ssS'224'
p3087
(dp3088
S'92'
p3089
g6
sS'23'
p3090
g6
sS'85'
p3091
g6
ssS'223'
p3092
(dp3093
S'76'
p3094
g6
sS'52'
p3095
g6
sS'85'
p3096
g6
ssS'222'
p3097
(dp3098
S'76'
p3099
g6
sS'23'
p3100
g6
sS'52'
p3101
g6
sS'92'
p3102
g6
sS'85'
p3103
g6
ssS'221'
p3104
(dp3105
S'56'
p3106
g6
sS'20'
p3107
g6
sS'23'
p3108
g6
sS'45'
p3109
g6
sS'37'
p3110
g6
sS'43'
p3111
g6
sg50
g6
sS'64'
p3112
g6
sS'71'
p3113
g6
sS'91'
p3114
g6
sS'86'
p3115
g210
sS'87'
p3116
g6
sS'96'
p3117
g6
ssS'220'
p3118
(dp3119
S'59'
p3120
g6
sS'28'
p3121
g6
sS'43'
p3122
g6
sS'34'
p3123
g6
sS'73'
p3124
g6
sS'82'
p3125
g6
sS'83'
p3126
g210
sS'52'
p3127
g6
sS'84'
p3128
g6
ssS'227'
p3129
(dp3130
S'91'
p3131
g6
ssS'120'
p3132
(dp3133
S'23'
p3134
g6
ssS'121'
p3135
(dp3136
S'23'
p3137
g6
ssS'122'
p3138
(dp3139
S'23'
p3140
g6
ssS'123'
p3141
(dp3142
S'23'
p3143
g6
ssS'124'
p3144
(dp3145
S'43'
p3146
g6
sS'88'
p3147
g6
sS'83'
p3148
g6
sS'81'
p3149
g6
sS'84'
p3150
g6
sS'24'
p3151
g6
sS'25'
p3152
g241
sS'26'
p3153
g6
sS'27'
p3154
g210
sS'47'
p3155
g6
sS'28'
p3156
g241
sS'29'
p3157
g6
sS'41'
p3158
g6
sS'73'
p3159
g6
sS'72'
p3160
g6
sS'71'
p3161
g6
sS'70'
p3162
g210
sS'38'
p3163
g6
sS'17'
p3164
g6
sS'19'
p3165
g6
sS'55'
p3166
g6
sS'31'
p3167
g6
sS'30'
p3168
g6
sS'37'
p3169
g6
sS'36'
p3170
g6
sS'35'
p3171
g6
sS'34'
p3172
g210
sS'33'
p3173
g210
ssS'125'
p3174
(dp3175
S'42'
p3176
g6
sS'62'
p3177
g6
sS'29'
p3178
g210
sS'61'
p3179
g6
sS'88'
p3180
g6
sS'83'
p3181
g6
sS'84'
p3182
g6
sS'24'
p3183
g6
sS'25'
p3184
g6
sS'26'
p3185
g6
sS'27'
p3186
g6
sS'28'
p3187
g177
sS'43'
p3188
g6
sS'94'
p3189
g6
sS'38'
p3190
g6
sS'19'
p3191
g210
sS'31'
p3192
g6
sS'30'
p3193
g6
sS'37'
p3194
g6
sS'36'
p3195
g6
sS'35'
p3196
g6
sS'34'
p3197
g177
sS'33'
p3198
g6
ssS'126'
p3199
(dp3200
S'32'
p3201
g210
sS'26'
p3202
g6
ssS'127'
p3203
(dp3204
S'32'
p3205
g210
sS'26'
p3206
g6
ssS'128'
p3207
(dp3208
S'55'
p3209
g6
sS'32'
p3210
g6
sS'26'
p3211
g6
sS'28'
p3212
g6
sS'54'
p3213
g6
ssS'129'
p3214
(dp3215
S'32'
p3216
g6
sS'26'
p3217
g6
ssS'191'
p3218
(dp3219
S'73'
p3220
g6
ssS'190'
p3221
(dp3222
S'73'
p3223
g6
ssS'192'
p3224
(dp3225
S'73'
p3226
g6
ssS'115'
p3227
(dp3228
S'19'
p3229
g6
sS'18'
p3230
g210
sS'20'
p3231
g6
sS'21'
p3232
g210
sS'22'
p3233
g6
ssS'114'
p3234
(dp3235
S'11'
p3236
g6
sS'47'
p3237
g6
sS'93'
p3238
g6
sS'17'
p3239
g6
ssS'117'
p3240
(dp3241
S'19'
p3242
g6
sS'18'
p3243
g210
sS'20'
p3244
g6
sS'21'
p3245
g210
sS'22'
p3246
g6
ssS'116'
p3247
(dp3248
S'19'
p3249
g6
sS'18'
p3250
g210
sS'20'
p3251
g6
sS'21'
p3252
g210
sS'22'
p3253
g6
ssS'111'
p3254
(dp3255
S'15'
p3256
g6
sS'16'
p3257
g6
ssS'110'
p3258
(dp3259
S'15'
p3260
g6
sS'16'
p3261
g6
ssS'113'
p3262
(dp3263
S'25'
p3264
g210
sS'15'
p3265
g6
sS'16'
p3266
g6
sS'55'
p3267
g6
sS'47'
p3268
g6
sS'73'
p3269
g6
sS'72'
p3270
g6
sS'71'
p3271
g6
sS'70'
p3272
g6
ssS'112'
p3273
(dp3274
S'15'
p3275
g6
sS'16'
p3276
g6
ssS'142'
p3277
(dp3278
S'17'
p3279
g6
ssS'119'
p3280
(dp3281
S'23'
p3282
g6
ssS'118'
p3283
(dp3284
S'23'
p3285
g6
ssS'207'
p3286
(dp3287
S'46'
p3288
g6
sS'83'
p3289
g6
sS'74'
p3290
g210
sS'22'
p3291
g6
sS'52'
p3292
g6
ssS'141'
p3293
(dp3294
S'17'
p3295
g6
ssS'226'
p3296
(dp3297
S'90'
p3298
g6
sS'89'
p3299
g6
sS'69'
p3300
g6
sS'78'
p3301
g6
ssS'108'
p3302
(dp3303
S'15'
p3304
g6
sS'16'
p3305
g6
ssS'109'
p3306
(dp3307
S'15'
p3308
g6
sS'16'
p3309
g6
ssS'240'
p3310
(dp3311
S'30'
p3312
g6
sS'17'
p3313
g6
ssS'102'
p3314
(dp3315
S'10'
p3316
g6
sS'77'
p3317
g6
sS'76'
p3318
g6
sS'52'
p3319
g6
sg6
g6
sg50
g6
sg177
g6
sg210
g6
sg224
g6
sg241
g6
sg195
g6
sg242
g6
sg197
g6
sg196
g6
sS'80'
p3320
g6
sS'79'
p3321
g6
sS'78'
p3322
g6
ssS'103'
p3323
(dp3324
S'42'
p3325
g6
sS'98'
p3326
g210
sS'43'
p3327
g6
sS'61'
p3328
g6
sS'88'
p3329
g210
sS'63'
p3330
g6
sS'82'
p3331
g6
sS'83'
p3332
g241
sS'80'
p3333
g6
sS'52'
p3334
g241
sS'84'
p3335
g6
sS'85'
p3336
g177
sS'24'
p3337
g210
sS'25'
p3338
g224
sS'26'
p3339
g210
sS'27'
p3340
g210
sS'22'
p3341
g6
sS'23'
p3342
g6
sS'46'
p3343
g6
sS'47'
p3344
g6
sS'44'
p3345
g6
sS'28'
p3346
S'11'
p3347
sS'29'
p3348
g6
sS'40'
p3349
g6
sS'41'
p3350
g6
sg6
g6
sg50
g6
sg177
g6
sg210
g6
sg224
g6
sg241
g6
sg195
g6
sg242
g6
sg197
g6
sg196
g6
sS'77'
p3351
g210
sS'76'
p3352
g210
sS'74'
p3353
g210
sS'73'
p3354
g177
sS'72'
p3355
g6
sS'71'
p3356
g177
sS'70'
p3357
g6
sS'90'
p3358
g6
sS'92'
p3359
g210
sS'95'
p3360
g6
sS'94'
p3361
g210
sS'79'
p3362
g6
sS'78'
p3363
g6
sS'10'
p3364
g6
sS'13'
p3365
g6
sS'38'
p3366
g6
sS'59'
p3367
g6
sS'58'
p3368
g210
sS'17'
p3369
g6
sS'55'
p3370
g210
sS'19'
p3371
g210
sS'54'
p3372
g210
sS'31'
p3373
g177
sS'30'
p3374
g6
sS'37'
p3375
g6
sS'36'
p3376
g6
sS'35'
p3377
g6
sS'34'
p3378
g210
sS'99'
p3379
g210
sS'33'
p3380
g210
sS'50'
p3381
g6
ssS'100'
p3382
(dp3383
S'10'
p3384
g6
sS'76'
p3385
g6
sS'77'
p3386
g6
sS'23'
p3387
g6
sS'52'
p3388
g6
sg6
g6
sg50
g6
sg177
g6
sg210
g6
sg224
g6
sg241
g6
sg195
g6
sg242
g6
sg197
g6
sg196
g6
sS'80'
p3389
g6
sS'79'
p3390
g6
sS'78'
p3391
g6
ssS'101'
p3392
(dp3393
S'10'
p3394
g6
sg6
g6
sg50
g6
sg177
g6
sg210
g6
sg224
g6
sg241
g6
sg195
g6
sg242
g6
sg197
g6
sg196
g6
ssS'106'
p3395
(dp3396
S'11'
p3397
g210
sS'13'
p3398
g6
sS'12'
p3399
g6
sS'14'
p3400
g6
sS'17'
p3401
g6
sS'57'
p3402
g6
sS'36'
p3403
g6
sS'38'
p3404
g6
ssS'107'
p3405
(dp3406
S'11'
p3407
g210
sS'13'
p3408
g6
sS'12'
p3409
g6
sS'14'
p3410
g6
sS'17'
p3411
g6
sS'49'
p3412
g210
sS'46'
p3413
g6
sS'47'
p3414
g210
sS'57'
p3415
g6
sS'36'
p3416
g210
sS'35'
p3417
g6
sS'34'
p3418
g210
sS'61'
p3419
g6
sS'62'
p3420
g6
sS'38'
p3421
g210
sS'73'
p3422
g6
sS'48'
p3423
g6
sS'93'
p3424
g6
sS'50'
p3425
g6
ssS'104'
p3426
(dp3427
S'11'
p3428
g6
sS'13'
p3429
g6
sS'12'
p3430
g6
sS'14'
p3431
g6
ssS'105'
p3432
(dp3433
S'11'
p3434
g6
sS'13'
p3435
g6
sS'12'
p3436
g6
sS'14'
p3437
g210
sS'72'
p3438
g6
ssS'179'
p3439
(dp3440
S'44'
p3441
g6
sS'63'
p3442
g6
ssS'178'
p3443
(dp3444
S'44'
p3445
g6
sS'63'
p3446
g6
ssS'177'
p3447
(dp3448
S'61'
p3449
g6
sS'62'
p3450
g6
sS'35'
p3451
g6
sS'34'
p3452
g6
ssS'176'
p3453
(dp3454
S'47'
p3455
g6
sS'35'
p3456
g6
sS'34'
p3457
g6
sS'61'
p3458
g6
sS'62'
p3459
g6
sS'93'
p3460
g6
ssS'175'
p3461
(dp3462
S'61'
p3463
g6
sS'62'
p3464
g6
sS'35'
p3465
g6
sS'34'
p3466
g6
ssS'174'
p3467
(dp3468
S'49'
p3469
g6
ssS'173'
p3470
(dp3471
S'49'
p3472
g6
ssS'172'
p3473
(dp3474
S'49'
p3475
g6
ssS'171'
p3476
(dp3477
S'60'
p3478
g6
sS'26'
p3479
g6
sS'59'
p3480
g6
ssS'170'
p3481
(dp3482
S'26'
p3483
g6
sS'59'
p3484
g6
sS'37'
p3485
g6
sS'57'
p3486
g6
sS'28'
p3487
g6
sS'39'
p3488
g6
sS'60'
p3489
g6
sS'65'
p3490
g6
ssS'182'
p3491
(dp3492
S'56'
p3493
g6
sS'20'
p3494
g6
sS'23'
p3495
g6
sS'45'
p3496
g6
sS'37'
p3497
g6
sS'43'
p3498
g6
sS'34'
p3499
g6
sg50
g6
sS'64'
p3500
g210
sS'65'
p3501
g6
sS'71'
p3502
g6
sS'91'
p3503
g6
sS'86'
p3504
g210
sS'87'
p3505
g6
sS'96'
p3506
g6
ssS'183'
p3507
(dp3508
S'64'
p3509
g6
sS'65'
p3510
g6
sS'34'
p3511
g6
ssS'180'
p3512
(dp3513
S'64'
p3514
g6
sS'65'
p3515
g6
sS'34'
p3516
g6
ssS'181'
p3517
(dp3518
S'64'
p3519
g6
sS'65'
p3520
g6
sS'34'
p3521
g6
ssS'186'
p3522
(dp3523
S'28'
p3524
g6
sS'60'
p3525
g210
sS'63'
p3526
g210
sS'89'
p3527
g6
sS'66'
p3528
g6
sS'67'
p3529
g210
sS'68'
p3530
g210
sS'69'
p3531
g177
ssS'187'
p3532
(dp3533
S'25'
p3534
g210
sS'55'
p3535
g6
sS'47'
p3536
g6
sS'73'
p3537
g6
sS'72'
p3538
g6
sS'71'
p3539
g6
sS'70'
p3540
g6
ssS'184'
p3541
(dp3542
S'26'
p3543
g6
sS'37'
p3544
g6
ssS'185'
p3545
(dp3546
S'26'
p3547
g6
sS'37'
p3548
g6
ssS'168'
p3549
(dp3550
S'60'
p3551
g6
sS'26'
p3552
g6
sS'59'
p3553
g6
ssS'169'
p3554
(dp3555
S'60'
p3556
g6
sS'26'
p3557
g6
sS'59'
p3558
g6
ssS'229'
p3559
(dp3560
S'93'
p3561
g6
sS'81'
p3562
g6
sS'36'
p3563
g6
ssS'164'
p3564
(dp3565
S'58'
p3566
g6
ssS'165'
p3567
(dp3568
S'58'
p3569
g6
ssS'166'
p3570
(dp3571
S'58'
p3572
g6
ssS'167'
p3573
(dp3574
S'58'
p3575
g6
ssS'160'
p3576
(dp3577
S'56'
p3578
g6
sg224
g6
ssS'161'
p3579
(dp3580
S'56'
p3581
g6
sg224
g6
ssS'162'
p3582
(dp3583
S'57'
p3584
g6
sS'38'
p3585
g6
sS'36'
p3586
g6
ssS'163'
p3587
(dp3588
S'57'
p3589
g6
sS'38'
p3590
g6
sS'36'
p3591
g6
ssS'151'
p3592
(dp3593
S'51'
p3594
g6
sS'53'
p3595
g6
sS'52'
p3596
g6
ssS'150'
p3597
(dp3598
S'38'
p3599
g6
sS'48'
p3600
g6
sS'49'
p3601
g6
sS'46'
p3602
g6
sS'47'
p3603
g6
sS'36'
p3604
g6
sS'34'
p3605
g6
sS'50'
p3606
g6
ssS'153'
p3607
(dp3608
S'51'
p3609
g6
sS'53'
p3610
g6
sS'52'
p3611
g6
ssS'152'
p3612
(dp3613
S'59'
p3614
g6
sS'51'
p3615
g6
sS'53'
p3616
g6
sS'52'
p3617
g210
sS'73'
p3618
g6
sS'71'
p3619
g6
sS'82'
p3620
g6
sS'83'
p3621
g210
ssS'155'
p3622
(dp3623
S'55'
p3624
g6
sS'54'
p3625
g6
sS'28'
p3626
g6
ssS'154'
p3627
(dp3628
S'13'
p3629
g6
sS'55'
p3630
g6
sS'54'
p3631
g6
sS'44'
p3632
g6
sS'28'
p3633
g6
sS'63'
p3634
g6
sS'73'
p3635
g6
sS'71'
p3636
g6
ssS'157'
p3637
(dp3638
S'23'
p3639
g6
sS'55'
p3640
g6
sS'54'
p3641
g6
sS'28'
p3642
g6
sS'71'
p3643
g6
sS'83'
p3644
g6
sS'92'
p3645
g6
ssS'156'
p3646
(dp3647
S'55'
p3648
g6
sS'54'
p3649
g6
sS'28'
p3650
g6
ssS'159'
p3651
(dp3652
S'26'
p3653
g6
sS'14'
p3654
g6
sS'22'
p3655
g6
sS'46'
p3656
g6
sS'56'
p3657
g6
sS'52'
p3658
g6
sS'74'
p3659
g210
sg224
g6
sS'72'
p3660
g6
sS'83'
p3661
g6
sS'92'
p3662
g6
sS'85'
p3663
g6
ssS'158'
p3664
(dp3665
S'13'
p3666
g6
sS'55'
p3667
g6
sS'54'
p3668
g210
sS'28'
p3669
g210
sS'99'
p3670
g6
sS'73'
p3671
g6
sS'71'
p3672
g6
ssS'238'
p3673
(dp3674
S'28'
p3675
g6
sS'97'
p3676
g6
ssS'239'
p3677
(dp3678
S'61'
p3679
g6
sS'26'
p3680
g6
sS'84'
p3681
g6
sS'97'
p3682
g6
sS'65'
p3683
g6
ssS'234'
p3684
(dp3685
S'13'
p3686
g6
sS'54'
p3687
g6
sS'28'
p3688
g6
sS'99'
p3689
g6
sS'73'
p3690
g6
sS'71'
p3691
g6
ssS'235'
p3692
(dp3693
S'15'
p3694
g6
sS'23'
p3695
g6
sS'19'
p3696
g6
sS'28'
p3697
g6
sS'16'
p3698
g6
sS'42'
p3699
g6
sS'75'
p3700
g6
sS'61'
p3701
g6
sS'88'
p3702
g6
sS'69'
p3703
g6
sS'94'
p3704
g6
sS'79'
p3705
g6
ssS'236'
p3706
(dp3707
S'77'
p3708
g6
sS'24'
p3709
g6
sS'95'
p3710
g6
sS'87'
p3711
g6
ssS'237'
p3712
(dp3713
S'80'
p3714
g6
sS'56'
p3715
g6
ssS'230'
p3716
(dp3717
S'93'
p3718
g6
sS'81'
p3719
g6
sS'36'
p3720
g6
ssS'232'
p3721
(dp3722
S'87'
p3723
g6
ssS'233'
p3724
(dp3725
S'14'
p3726
g6
sS'72'
p3727
g6
ssS'147'
p3728
(dp3729
S'38'
p3730
g6
sS'71'
p3731
g6
sS'48'
p3732
g6
sS'51'
p3733
g6
sS'28'
p3734
g177
sS'60'
p3735
g210
sS'82'
p3736
g6
sS'63'
p3737
g210
sS'89'
p3738
g6
sS'66'
p3739
g6
sS'67'
p3740
g210
sS'68'
p3741
g210
sS'69'
p3742
g241
ssS'202'
p3743
(dp3744
S'59'
p3745
g6
sS'46'
p3746
g6
sS'52'
p3747
g6
sS'73'
p3748
g6
sS'82'
p3749
g6
sS'83'
p3750
g6
ssS'205'
p3751
(dp3752
S'46'
p3753
g6
sS'74'
p3754
g6
ssS'140'
p3755
(dp3756
S'31'
p3757
g6
sS'44'
p3758
g6
sS'45'
p3759
g6
sS'42'
p3760
g6
sS'43'
p3761
g6
ssS'206'
p3762
(dp3763
S'46'
p3764
g6
sS'74'
p3765
g6
ssS'209'
p3766
(dp3767
S'43'
p3768
g6
sS'75'
p3769
g6
sS'26'
p3770
g6
sS'66'
p3771
g6
sS'23'
p3772
g6
ssS'208'
p3773
(dp3774
S'46'
p3775
g6
sS'74'
p3776
g6
ssS'148'
p3777
(dp3778
S'28'
p3779
g6
ssS'149'
p3780
(dp3781
S'38'
p3782
g6
sS'48'
p3783
g6
sS'49'
p3784
g6
sS'46'
p3785
g6
sS'47'
p3786
g6
sS'36'
p3787
g6
sS'34'
p3788
g6
sS'50'
p3789
g6
sssg224
(dp3790
S'245'
p3791
(dp3792
S'158'
p3793
g6
sS'218'
p3794
g6
sS'219'
p3795
g6
sS'133'
p3796
g6
sS'114'
p3797
g6
sS'130'
p3798
g177
sS'113'
p3799
g6
sS'129'
p3800
g6
sS'177'
p3801
g6
sS'176'
p3802
g210
sS'175'
p3803
g6
sS'174'
p3804
g6
sS'173'
p3805
g6
sS'172'
p3806
g6
sS'234'
p3807
g6
sS'187'
p3808
g6
sS'188'
p3809
g6
sS'189'
p3810
g6
sS'141'
p3811
g6
sS'124'
p3812
g6
sS'126'
p3813
g210
sS'127'
p3814
g210
sS'128'
p3815
g6
sS'103'
p3816
g241
sS'107'
p3817
g177
sS'236'
p3818
g6
ssS'244'
p3819
(dp3820
S'210'
p3821
g6
sS'211'
p3822
g6
sS'130'
p3823
g210
sS'236'
p3824
g6
sS'119'
p3825
g6
sS'118'
p3826
g6
sS'232'
p3827
g6
sS'182'
p3828
g210
sS'183'
p3829
g6
sS'180'
p3830
g6
sS'181'
p3831
g6
sS'186'
p3832
g210
sS'147'
p3833
g210
sS'209'
p3834
g6
sS'120'
p3835
g6
sS'121'
p3836
g6
sS'122'
p3837
g6
sS'123'
p3838
g6
sS'228'
p3839
g6
sS'226'
p3840
g6
sS'100'
p3841
g6
sS'221'
p3842
g6
ssS'247'
p3843
(dp3844
S'103'
p3845
g6
sS'238'
p3846
g6
sS'231'
p3847
g6
sS'232'
p3848
g6
ssS'246'
p3849
(dp3850
S'216'
p3851
g6
sS'215'
p3852
g6
sS'212'
p3853
g177
sS'154'
p3854
g6
sS'159'
p3855
g241
sS'130'
p3856
g177
sS'179'
p3857
g6
sS'178'
p3858
g6
sS'235'
p3859
g210
sS'225'
p3860
g210
sS'171'
p3861
g6
sS'170'
p3862
g6
sS'141'
p3863
g177
sS'182'
p3864
g6
sS'186'
p3865
g6
sS'147'
p3866
g210
sS'205'
p3867
g6
sS'207'
p3868
g177
sS'206'
p3869
g6
sS'209'
p3870
g6
sS'208'
p3871
g6
sS'142'
p3872
g6
sS'168'
p3873
g6
sS'169'
p3874
g6
sS'102'
p3875
g6
sS'103'
p3876
g196
sS'100'
p3877
g6
sS'224'
p3878
g6
sS'223'
p3879
g6
sS'222'
p3880
g6
sS'221'
p3881
g6
ssS'241'
p3882
(dp3883
S'151'
p3884
g6
sS'217'
p3885
g6
sS'153'
p3886
g6
sS'152'
p3887
g177
sS'154'
p3888
g6
sS'157'
p3889
g210
sS'159'
p3890
g210
sS'158'
p3891
g6
sS'134'
p3892
g6
sS'227'
p3893
g6
sS'132'
p3894
g6
sS'131'
p3895
g6
sS'130'
p3896
g195
sS'137'
p3897
g6
sS'239'
p3898
g6
sS'113'
p3899
g6
sS'103'
p3900
S'14'
p3901
sS'234'
p3902
g6
sS'235'
p3903
g6
sS'139'
p3904
g6
sS'138'
p3905
g6
sS'230'
p3906
g210
sS'102'
p3907
g6
sS'233'
p3908
g6
sS'167'
p3909
g6
sS'223'
p3910
g6
sS'222'
p3911
g210
sS'182'
p3912
g6
sS'187'
p3913
g210
sS'184'
p3914
g6
sS'185'
p3915
g6
sS'105'
p3916
g6
sS'166'
p3917
g6
sS'201'
p3918
g6
sS'147'
p3919
g6
sS'203'
p3920
g6
sS'202'
p3921
g177
sS'204'
p3922
g6
sS'140'
p3923
g6
sS'148'
p3924
g6
sS'124'
p3925
g177
sS'125'
p3926
g210
sS'229'
p3927
g210
sS'164'
p3928
g6
sS'165'
p3929
g6
sS'100'
p3930
g6
sS'101'
p3931
g6
sS'160'
p3932
g6
sS'161'
p3933
g6
sS'221'
p3934
g6
sS'220'
p3935
g6
sS'170'
p3936
g6
sS'224'
p3937
g6
sS'133'
p3938
g6
sS'237'
p3939
g6
sS'136'
p3940
g6
ssS'243'
p3941
(dp3942
S'115'
p3943
g210
sS'117'
p3944
g210
sS'116'
p3945
g210
ssS'242'
p3946
(dp3947
S'150'
p3948
g210
sS'214'
p3949
g6
sS'155'
p3950
g6
sS'113'
p3951
g6
sS'157'
p3952
g6
sS'156'
p3953
g6
sS'195'
p3954
g6
sS'158'
p3955
g6
sS'197'
p3956
g6
sS'112'
p3957
g6
sS'191'
p3958
g6
sS'190'
p3959
g6
sS'193'
p3960
g6
sS'192'
p3961
g6
sS'133'
p3962
g6
sS'114'
p3963
g6
sS'240'
p3964
g6
sS'130'
p3965
g177
sS'111'
p3966
g6
sS'136'
p3967
g6
sS'135'
p3968
g6
sS'134'
p3969
g6
sS'199'
p3970
g6
sS'154'
p3971
g6
sS'198'
p3972
g6
sS'196'
p3973
g6
sS'159'
p3974
g6
sS'162'
p3975
g6
sS'194'
p3976
g6
sS'163'
p3977
g6
sS'146'
p3978
g6
sS'200'
p3979
g6
sS'144'
p3980
g6
sS'145'
p3981
g6
sS'142'
p3982
g6
sS'143'
p3983
g6
sS'141'
p3984
g6
sS'217'
p3985
g6
sS'149'
p3986
g6
sS'108'
p3987
g6
sS'109'
p3988
g6
sS'124'
p3989
g224
sS'125'
p3990
g177
sS'128'
p3991
g6
sS'103'
p3992
g195
sS'219'
p3993
g6
sS'106'
p3994
g177
sS'107'
p3995
g224
sS'104'
p3996
g6
sS'105'
p3997
g210
sS'220'
p3998
g6
sS'213'
p3999
g6
sS'233'
p4000
g6
sS'110'
p4001
g6
ssS'248'
p4002
(dp4003
S'182'
p4004
g6
sS'221'
p4005
g6
sssg241
(dp4006
S'216'
p4007
(dp4008
S'246'
p4009
g6
ssS'217'
p4010
(dp4011
S'241'
p4012
g6
sS'242'
p4013
g6
ssS'214'
p4014
(dp4015
S'242'
p4016
g6
ssS'215'
p4017
(dp4018
S'246'
p4019
g6
ssS'212'
p4020
(dp4021
S'246'
p4022
g177
ssS'213'
p4023
(dp4024
S'242'
p4025
g6
ssS'210'
p4026
(dp4027
S'244'
p4028
g6
ssS'211'
p4029
(dp4030
S'244'
p4031
g6
ssS'218'
p4032
(dp4033
S'245'
p4034
g6
ssS'219'
p4035
(dp4036
S'245'
p4037
g6
sS'242'
p4038
g6
ssS'133'
p4039
(dp4040
S'245'
p4041
g6
sS'241'
p4042
g6
sS'242'
p4043
g6
ssS'132'
p4044
(dp4045
S'241'
p4046
g6
ssS'131'
p4047
(dp4048
S'241'
p4049
g6
ssS'130'
p4050
(dp4051
S'245'
p4052
g177
sS'244'
p4053
g210
sS'246'
p4054
g177
sS'241'
p4055
g195
sS'242'
p4056
g177
ssS'137'
p4057
(dp4058
S'241'
p4059
g6
ssS'136'
p4060
(dp4061
S'241'
p4062
g6
sS'242'
p4063
g6
ssS'135'
p4064
(dp4065
S'242'
p4066
g6
ssS'134'
p4067
(dp4068
S'241'
p4069
g6
sS'242'
p4070
g6
ssS'139'
p4071
(dp4072
S'241'
p4073
g6
ssS'138'
p4074
(dp4075
S'241'
p4076
g6
ssS'225'
p4077
(dp4078
S'246'
p4079
g210
ssS'224'
p4080
(dp4081
S'246'
p4082
g6
sS'241'
p4083
g6
ssS'223'
p4084
(dp4085
S'246'
p4086
g6
sS'241'
p4087
g6
ssS'222'
p4088
(dp4089
S'246'
p4090
g6
sS'241'
p4091
g210
ssS'221'
p4092
(dp4093
S'244'
p4094
g6
sS'246'
p4095
g6
sS'241'
p4096
g6
sS'248'
p4097
g6
ssS'220'
p4098
(dp4099
S'241'
p4100
g6
sS'242'
p4101
g6
ssS'227'
p4102
(dp4103
S'241'
p4104
g6
ssS'120'
p4105
(dp4106
S'244'
p4107
g6
ssS'121'
p4108
(dp4109
S'244'
p4110
g6
ssS'122'
p4111
(dp4112
S'244'
p4113
g6
ssS'123'
p4114
(dp4115
S'244'
p4116
g6
ssS'124'
p4117
(dp4118
S'245'
p4119
g6
sS'241'
p4120
g177
sS'242'
p4121
g224
ssS'125'
p4122
(dp4123
S'241'
p4124
g210
sS'242'
p4125
g177
ssS'126'
p4126
(dp4127
S'245'
p4128
g210
ssS'127'
p4129
(dp4130
S'245'
p4131
g210
ssS'128'
p4132
(dp4133
S'245'
p4134
g6
sS'242'
p4135
g6
ssS'129'
p4136
(dp4137
S'245'
p4138
g6
ssS'201'
p4139
(dp4140
S'241'
p4141
g6
ssS'199'
p4142
(dp4143
S'242'
p4144
g6
ssS'198'
p4145
(dp4146
S'242'
p4147
g6
ssS'200'
p4148
(dp4149
S'242'
p4150
g6
ssS'195'
p4151
(dp4152
S'242'
p4153
g6
ssS'194'
p4154
(dp4155
S'242'
p4156
g6
ssS'197'
p4157
(dp4158
S'242'
p4159
g6
ssS'196'
p4160
(dp4161
S'242'
p4162
g6
ssS'191'
p4163
(dp4164
S'242'
p4165
g6
ssS'190'
p4166
(dp4167
S'242'
p4168
g6
ssS'193'
p4169
(dp4170
S'242'
p4171
g6
ssS'192'
p4172
(dp4173
S'242'
p4174
g6
ssS'115'
p4175
(dp4176
S'243'
p4177
g210
ssS'114'
p4178
(dp4179
S'245'
p4180
g6
sS'242'
p4181
g6
ssS'117'
p4182
(dp4183
S'243'
p4184
g210
ssS'116'
p4185
(dp4186
S'243'
p4187
g210
ssS'111'
p4188
(dp4189
S'242'
p4190
g6
ssS'110'
p4191
(dp4192
S'242'
p4193
g6
ssS'113'
p4194
(dp4195
S'245'
p4196
g6
sS'241'
p4197
g6
sS'242'
p4198
g6
ssS'112'
p4199
(dp4200
S'242'
p4201
g6
ssS'205'
p4202
(dp4203
S'246'
p4204
g6
ssS'119'
p4205
(dp4206
S'244'
p4207
g6
ssS'118'
p4208
(dp4209
S'244'
p4210
g6
ssS'204'
p4211
(dp4212
S'241'
p4213
g6
ssS'207'
p4214
(dp4215
S'246'
p4216
g177
ssS'206'
p4217
(dp4218
S'246'
p4219
g6
ssS'226'
p4220
(dp4221
S'244'
p4222
g6
ssS'108'
p4223
(dp4224
S'242'
p4225
g6
ssS'109'
p4226
(dp4227
S'242'
p4228
g6
ssS'240'
p4229
(dp4230
S'242'
p4231
g6
ssS'102'
p4232
(dp4233
S'246'
p4234
g6
sS'241'
p4235
g6
ssS'103'
p4236
(dp4237
S'245'
p4238
g241
sS'247'
p4239
g6
sS'246'
p4240
g196
sS'241'
p4241
S'14'
p4242
sS'242'
p4243
g195
ssS'100'
p4244
(dp4245
S'244'
p4246
g6
sS'246'
p4247
g6
sS'241'
p4248
g6
ssS'101'
p4249
(dp4250
S'241'
p4251
g6
ssS'106'
p4252
(dp4253
S'242'
p4254
g177
ssS'107'
p4255
(dp4256
S'245'
p4257
g177
sS'242'
p4258
g224
ssS'104'
p4259
(dp4260
S'242'
p4261
g6
ssS'105'
p4262
(dp4263
S'241'
p4264
g6
sS'242'
p4265
g210
ssS'179'
p4266
(dp4267
S'246'
p4268
g6
ssS'178'
p4269
(dp4270
S'246'
p4271
g6
ssS'177'
p4272
(dp4273
S'245'
p4274
g6
ssS'176'
p4275
(dp4276
S'245'
p4277
g210
ssS'175'
p4278
(dp4279
S'245'
p4280
g6
ssS'174'
p4281
(dp4282
S'245'
p4283
g6
ssS'173'
p4284
(dp4285
S'245'
p4286
g6
ssS'172'
p4287
(dp4288
S'245'
p4289
g6
ssS'171'
p4290
(dp4291
S'246'
p4292
g6
ssS'170'
p4293
(dp4294
S'246'
p4295
g6
sS'241'
p4296
g6
ssS'203'
p4297
(dp4298
S'241'
p4299
g6
ssS'182'
p4300
(dp4301
S'244'
p4302
g210
sS'246'
p4303
g6
sS'241'
p4304
g6
sS'248'
p4305
g6
ssS'183'
p4306
(dp4307
S'244'
p4308
g6
ssS'180'
p4309
(dp4310
S'244'
p4311
g6
ssS'181'
p4312
(dp4313
S'244'
p4314
g6
ssS'186'
p4315
(dp4316
S'244'
p4317
g210
sS'246'
p4318
g6
ssS'187'
p4319
(dp4320
S'245'
p4321
g6
sS'241'
p4322
g210
ssS'184'
p4323
(dp4324
S'241'
p4325
g6
ssS'185'
p4326
(dp4327
S'241'
p4328
g6
ssS'188'
p4329
(dp4330
S'245'
p4331
g6
ssS'189'
p4332
(dp4333
S'245'
p4334
g6
ssS'202'
p4335
(dp4336
S'241'
p4337
g177
ssS'168'
p4338
(dp4339
S'246'
p4340
g6
ssS'169'
p4341
(dp4342
S'246'
p4343
g6
ssS'229'
p4344
(dp4345
S'241'
p4346
g210
ssS'228'
p4347
(dp4348
S'244'
p4349
g6
ssS'164'
p4350
(dp4351
S'241'
p4352
g6
ssS'165'
p4353
(dp4354
S'241'
p4355
g6
ssS'166'
p4356
(dp4357
S'241'
p4358
g6
ssS'167'
p4359
(dp4360
S'241'
p4361
g6
ssS'160'
p4362
(dp4363
S'241'
p4364
g6
ssS'161'
p4365
(dp4366
S'241'
p4367
g6
ssS'162'
p4368
(dp4369
S'242'
p4370
g6
ssS'163'
p4371
(dp4372
S'242'
p4373
g6
ssS'151'
p4374
(dp4375
S'241'
p4376
g6
ssS'150'
p4377
(dp4378
S'242'
p4379
g210
ssS'153'
p4380
(dp4381
S'241'
p4382
g6
ssS'152'
p4383
(dp4384
S'241'
p4385
g177
ssS'155'
p4386
(dp4387
S'242'
p4388
g6
ssS'154'
p4389
(dp4390
S'246'
p4391
g6
sS'241'
p4392
g6
sS'242'
p4393
g6
ssS'157'
p4394
(dp4395
S'241'
p4396
g210
sS'242'
p4397
g6
ssS'156'
p4398
(dp4399
S'242'
p4400
g6
ssS'159'
p4401
(dp4402
S'246'
p4403
g241
sS'241'
p4404
g210
sS'242'
p4405
g6
ssS'158'
p4406
(dp4407
S'245'
p4408
g6
sS'241'
p4409
g6
sS'242'
p4410
g6
ssS'238'
p4411
(dp4412
S'247'
p4413
g6
ssS'239'
p4414
(dp4415
S'241'
p4416
g6
ssS'234'
p4417
(dp4418
S'245'
p4419
g6
sS'241'
p4420
g6
ssS'235'
p4421
(dp4422
S'246'
p4423
g210
sS'241'
p4424
g6
ssS'236'
p4425
(dp4426
S'245'
p4427
g6
sS'244'
p4428
g6
ssS'237'
p4429
(dp4430
S'241'
p4431
g6
ssS'230'
p4432
(dp4433
S'241'
p4434
g210
ssS'231'
p4435
(dp4436
S'247'
p4437
g6
ssS'232'
p4438
(dp4439
S'244'
p4440
g6
sS'247'
p4441
g6
ssS'233'
p4442
(dp4443
S'241'
p4444
g6
sS'242'
p4445
g6
ssS'146'
p4446
(dp4447
S'242'
p4448
g6
ssS'147'
p4449
(dp4450
S'244'
p4451
g210
sS'246'
p4452
g210
sS'241'
p4453
g6
ssS'144'
p4454
(dp4455
S'242'
p4456
g6
ssS'145'
p4457
(dp4458
S'242'
p4459
g6
ssS'142'
p4460
(dp4461
S'246'
p4462
g6
sS'242'
p4463
g6
ssS'143'
p4464
(dp4465
S'242'
p4466
g6
ssS'140'
p4467
(dp4468
S'241'
p4469
g6
ssS'141'
p4470
(dp4471
S'245'
p4472
g6
sS'246'
p4473
g177
sS'242'
p4474
g6
ssS'209'
p4475
(dp4476
S'244'
p4477
g6
sS'246'
p4478
g6
ssS'208'
p4479
(dp4480
S'246'
p4481
g6
ssS'148'
p4482
(dp4483
S'241'
p4484
g6
ssS'149'
p4485
(dp4486
S'242'
p4487
g6
sssg195
(dp4488
S'252'
p4489
(dp4490
S'103'
p4491
g6
sS'238'
p4492
g6
sS'231'
p4493
g6
sS'232'
p4494
g6
ssS'250'
p4495
(dp4496
S'150'
p4497
g6
sS'113'
p4498
g210
sS'217'
p4499
g6
sS'159'
p4500
g6
sS'218'
p4501
g6
sS'219'
p4502
g6
sS'133'
p4503
g210
sS'117'
p4504
g210
sS'130'
p4505
g241
sS'137'
p4506
g6
sS'136'
p4507
g210
sS'135'
p4508
g6
sS'134'
p4509
g210
sS'235'
p4510
g6
sS'139'
p4511
g6
sS'138'
p4512
g6
sS'173'
p4513
g6
sS'172'
p4514
g6
sS'174'
p4515
g6
sS'106'
p4516
g6
sS'161'
p4517
g6
sS'182'
p4518
g210
sS'162'
p4519
g6
sS'187'
p4520
g210
sS'147'
p4521
g6
sS'202'
p4522
g6
sS'221'
p4523
g210
sS'140'
p4524
g6
sS'141'
p4525
g177
sS'142'
p4526
g6
sS'148'
p4527
g6
sS'149'
p4528
g6
sS'124'
p4529
g242
sS'125'
p4530
g241
sS'126'
p4531
g6
sS'127'
p4532
g6
sS'128'
p4533
g6
sS'103'
p4534
g197
sS'160'
p4535
g6
sS'107'
p4536
g177
sS'129'
p4537
g6
sS'163'
p4538
g6
sS'115'
p4539
g210
sS'116'
p4540
g210
sS'239'
p4541
g6
ssS'251'
p4542
(dp4543
S'146'
p4544
g6
sS'144'
p4545
g6
sS'145'
p4546
g6
sS'142'
p4547
g6
sS'143'
p4548
g6
sS'141'
p4549
g6
sS'189'
p4550
g6
sS'130'
p4551
g177
sS'165'
p4552
g6
sS'164'
p4553
g6
sS'103'
p4554
g224
sS'166'
p4555
g6
sS'167'
p4556
g6
sS'188'
p4557
g6
ssS'249'
p4558
(dp4559
S'216'
p4560
g6
sS'217'
p4561
g6
sS'214'
p4562
g6
sS'215'
p4563
g6
sS'212'
p4564
g177
sS'213'
p4565
g6
sS'210'
p4566
g6
sS'211'
p4567
g6
sS'219'
p4568
g6
sS'133'
p4569
g6
sS'132'
p4570
g6
sS'131'
p4571
g6
sS'130'
p4572
S'11'
p4573
sS'120'
p4574
g6
sS'121'
p4575
g6
sS'122'
p4576
g6
sS'123'
p4577
g6
sS'124'
p4578
g177
sS'125'
p4579
g6
sS'126'
p4580
g6
sS'127'
p4581
g6
sS'128'
p4582
g6
sS'199'
p4583
g6
sS'198'
p4584
g6
sS'147'
p4585
g241
sS'195'
p4586
g6
sS'194'
p4587
g6
sS'197'
p4588
g6
sS'196'
p4589
g6
sS'191'
p4590
g6
sS'190'
p4591
g6
sS'193'
p4592
g6
sS'192'
p4593
g6
sS'114'
p4594
g210
sS'111'
p4595
g6
sS'110'
p4596
g6
sS'113'
p4597
g6
sS'112'
p4598
g6
sS'119'
p4599
g6
sS'118'
p4600
g6
sS'206'
p4601
g6
sS'108'
p4602
g6
sS'109'
p4603
g6
sS'240'
p4604
g6
sS'102'
p4605
g210
sS'103'
p4606
S'19'
p4607
sS'100'
p4608
g177
sS'101'
p4609
g6
sS'106'
p4610
g210
sS'107'
p4611
g224
sS'104'
p4612
g6
sS'105'
p4613
g177
sS'179'
p4614
g6
sS'178'
p4615
g6
sS'177'
p4616
g6
sS'176'
p4617
g210
sS'175'
p4618
g6
sS'171'
p4619
g6
sS'170'
p4620
g210
sS'182'
p4621
g177
sS'183'
p4622
g6
sS'180'
p4623
g6
sS'181'
p4624
g6
sS'186'
p4625
g177
sS'187'
p4626
g6
sS'184'
p4627
g6
sS'185'
p4628
g6
sS'168'
p4629
g6
sS'169'
p4630
g6
sS'229'
p4631
g210
sS'228'
p4632
g6
sS'227'
p4633
g6
sS'226'
p4634
g6
sS'225'
p4635
g210
sS'224'
p4636
g210
sS'223'
p4637
g210
sS'222'
p4638
g177
sS'221'
p4639
g210
sS'220'
p4640
g210
sS'151'
p4641
g6
sS'150'
p4642
g6
sS'153'
p4643
g6
sS'152'
p4644
g177
sS'155'
p4645
g6
sS'154'
p4646
g177
sS'157'
p4647
g177
sS'156'
p4648
g6
sS'159'
p4649
g242
sS'158'
p4650
g177
sS'234'
p4651
g210
sS'235'
p4652
g210
sS'236'
p4653
g210
sS'237'
p4654
g6
sS'230'
p4655
g210
sS'232'
p4656
g6
sS'233'
p4657
g210
sS'201'
p4658
g6
sS'200'
p4659
g6
sS'203'
p4660
g6
sS'202'
p4661
g210
sS'205'
p4662
g6
sS'204'
p4663
g6
sS'207'
p4664
g177
sS'141'
p4665
g6
sS'209'
p4666
g210
sS'208'
p4667
g6
sssg242
(dp4668
S'216'
p4669
(dp4670
S'249'
p4671
g6
ssS'217'
p4672
(dp4673
S'250'
p4674
g6
sS'249'
p4675
g6
ssS'214'
p4676
(dp4677
S'249'
p4678
g6
ssS'215'
p4679
(dp4680
S'249'
p4681
g6
ssS'212'
p4682
(dp4683
S'249'
p4684
g177
ssS'213'
p4685
(dp4686
S'249'
p4687
g6
ssS'210'
p4688
(dp4689
S'249'
p4690
g6
ssS'211'
p4691
(dp4692
S'249'
p4693
g6
ssS'218'
p4694
(dp4695
S'250'
p4696
g6
ssS'219'
p4697
(dp4698
S'250'
p4699
g6
sS'249'
p4700
g6
ssS'133'
p4701
(dp4702
S'250'
p4703
g210
sS'249'
p4704
g6
ssS'132'
p4705
(dp4706
S'249'
p4707
g6
ssS'131'
p4708
(dp4709
S'249'
p4710
g6
ssS'130'
p4711
(dp4712
S'250'
p4713
g241
sS'251'
p4714
g177
sS'249'
p4715
S'11'
p4716
ssS'137'
p4717
(dp4718
S'250'
p4719
g6
ssS'136'
p4720
(dp4721
S'250'
p4722
g210
ssS'135'
p4723
(dp4724
S'250'
p4725
g6
ssS'134'
p4726
(dp4727
S'250'
p4728
g210
ssS'139'
p4729
(dp4730
S'250'
p4731
g6
ssS'138'
p4732
(dp4733
S'250'
p4734
g6
ssS'225'
p4735
(dp4736
S'249'
p4737
g210
ssS'224'
p4738
(dp4739
S'249'
p4740
g210
ssS'223'
p4741
(dp4742
S'249'
p4743
g210
ssS'222'
p4744
(dp4745
S'249'
p4746
g177
ssS'221'
p4747
(dp4748
S'250'
p4749
g210
sS'249'
p4750
g210
ssS'220'
p4751
(dp4752
S'249'
p4753
g210
ssS'227'
p4754
(dp4755
S'249'
p4756
g6
ssS'120'
p4757
(dp4758
S'249'
p4759
g6
ssS'121'
p4760
(dp4761
S'249'
p4762
g6
ssS'122'
p4763
(dp4764
S'249'
p4765
g6
ssS'123'
p4766
(dp4767
S'249'
p4768
g6
ssS'124'
p4769
(dp4770
S'250'
p4771
g242
sS'249'
p4772
g177
ssS'125'
p4773
(dp4774
S'250'
p4775
g241
sS'249'
p4776
g6
ssS'126'
p4777
(dp4778
S'250'
p4779
g6
sS'249'
p4780
g6
ssS'127'
p4781
(dp4782
S'250'
p4783
g6
sS'249'
p4784
g6
ssS'128'
p4785
(dp4786
S'250'
p4787
g6
sS'249'
p4788
g6
ssS'129'
p4789
(dp4790
S'250'
p4791
g6
ssS'201'
p4792
(dp4793
S'249'
p4794
g6
ssS'199'
p4795
(dp4796
S'249'
p4797
g6
ssS'198'
p4798
(dp4799
S'249'
p4800
g6
ssS'200'
p4801
(dp4802
S'249'
p4803
g6
ssS'195'
p4804
(dp4805
S'249'
p4806
g6
ssS'194'
p4807
(dp4808
S'249'
p4809
g6
ssS'197'
p4810
(dp4811
S'249'
p4812
g6
ssS'196'
p4813
(dp4814
S'249'
p4815
g6
ssS'191'
p4816
(dp4817
S'249'
p4818
g6
ssS'190'
p4819
(dp4820
S'249'
p4821
g6
ssS'193'
p4822
(dp4823
S'249'
p4824
g6
ssS'192'
p4825
(dp4826
S'249'
p4827
g6
ssS'115'
p4828
(dp4829
S'250'
p4830
g210
ssS'114'
p4831
(dp4832
S'249'
p4833
g210
ssS'117'
p4834
(dp4835
S'250'
p4836
g210
ssS'116'
p4837
(dp4838
S'250'
p4839
g210
ssS'111'
p4840
(dp4841
S'249'
p4842
g6
ssS'110'
p4843
(dp4844
S'249'
p4845
g6
ssS'113'
p4846
(dp4847
S'250'
p4848
g210
sS'249'
p4849
g6
ssS'112'
p4850
(dp4851
S'249'
p4852
g6
ssS'205'
p4853
(dp4854
S'249'
p4855
g6
ssS'119'
p4856
(dp4857
S'249'
p4858
g6
ssS'118'
p4859
(dp4860
S'249'
p4861
g6
ssS'204'
p4862
(dp4863
S'249'
p4864
g6
ssS'207'
p4865
(dp4866
S'249'
p4867
g177
ssS'206'
p4868
(dp4869
S'249'
p4870
g6
ssS'226'
p4871
(dp4872
S'249'
p4873
g6
ssS'108'
p4874
(dp4875
S'249'
p4876
g6
ssS'109'
p4877
(dp4878
S'249'
p4879
g6
ssS'240'
p4880
(dp4881
S'249'
p4882
g6
ssS'102'
p4883
(dp4884
S'249'
p4885
g210
ssS'103'
p4886
(dp4887
S'252'
p4888
g6
sS'250'
p4889
g197
sS'251'
p4890
g224
sS'249'
p4891
S'19'
p4892
ssS'100'
p4893
(dp4894
S'249'
p4895
g177
ssS'101'
p4896
(dp4897
S'249'
p4898
g6
ssS'106'
p4899
(dp4900
S'250'
p4901
g6
sS'249'
p4902
g210
ssS'107'
p4903
(dp4904
S'250'
p4905
g177
sS'249'
p4906
g224
ssS'104'
p4907
(dp4908
S'249'
p4909
g6
ssS'105'
p4910
(dp4911
S'249'
p4912
g177
ssS'179'
p4913
(dp4914
S'249'
p4915
g6
ssS'178'
p4916
(dp4917
S'249'
p4918
g6
ssS'177'
p4919
(dp4920
S'249'
p4921
g6
ssS'176'
p4922
(dp4923
S'249'
p4924
g210
ssS'175'
p4925
(dp4926
S'249'
p4927
g6
ssS'174'
p4928
(dp4929
S'250'
p4930
g6
ssS'173'
p4931
(dp4932
S'250'
p4933
g6
ssS'172'
p4934
(dp4935
S'250'
p4936
g6
ssS'171'
p4937
(dp4938
S'249'
p4939
g6
ssS'170'
p4940
(dp4941
S'249'
p4942
g210
ssS'203'
p4943
(dp4944
S'249'
p4945
g6
ssS'182'
p4946
(dp4947
S'250'
p4948
g210
sS'249'
p4949
g177
ssS'183'
p4950
(dp4951
S'249'
p4952
g6
ssS'180'
p4953
(dp4954
S'249'
p4955
g6
ssS'181'
p4956
(dp4957
S'249'
p4958
g6
ssS'186'
p4959
(dp4960
S'249'
p4961
g177
ssS'187'
p4962
(dp4963
S'250'
p4964
g210
sS'249'
p4965
g6
ssS'184'
p4966
(dp4967
S'249'
p4968
g6
ssS'185'
p4969
(dp4970
S'249'
p4971
g6
ssS'188'
p4972
(dp4973
S'251'
p4974
g6
ssS'189'
p4975
(dp4976
S'251'
p4977
g6
ssS'202'
p4978
(dp4979
S'250'
p4980
g6
sS'249'
p4981
g210
ssS'168'
p4982
(dp4983
S'249'
p4984
g6
ssS'169'
p4985
(dp4986
S'249'
p4987
g6
ssS'229'
p4988
(dp4989
S'249'
p4990
g210
ssS'228'
p4991
(dp4992
S'249'
p4993
g6
ssS'164'
p4994
(dp4995
S'251'
p4996
g6
ssS'165'
p4997
(dp4998
S'251'
p4999
g6
ssS'166'
p5000
(dp5001
S'251'
p5002
g6
ssS'167'
p5003
(dp5004
S'251'
p5005
g6
ssS'160'
p5006
(dp5007
S'250'
p5008
g6
ssS'161'
p5009
(dp5010
S'250'
p5011
g6
ssS'162'
p5012
(dp5013
S'250'
p5014
g6
ssS'163'
p5015
(dp5016
S'250'
p5017
g6
ssS'151'
p5018
(dp5019
S'249'
p5020
g6
ssS'150'
p5021
(dp5022
S'250'
p5023
g6
sS'249'
p5024
g6
ssS'153'
p5025
(dp5026
S'249'
p5027
g6
ssS'152'
p5028
(dp5029
S'249'
p5030
g177
ssS'155'
p5031
(dp5032
S'249'
p5033
g6
ssS'154'
p5034
(dp5035
S'249'
p5036
g177
ssS'157'
p5037
(dp5038
S'249'
p5039
g177
ssS'156'
p5040
(dp5041
S'249'
p5042
g6
ssS'159'
p5043
(dp5044
S'250'
p5045
g6
sS'249'
p5046
g242
ssS'158'
p5047
(dp5048
S'249'
p5049
g177
ssS'238'
p5050
(dp5051
S'252'
p5052
g6
ssS'239'
p5053
(dp5054
S'250'
p5055
g6
ssS'234'
p5056
(dp5057
S'249'
p5058
g210
ssS'235'
p5059
(dp5060
S'250'
p5061
g6
sS'249'
p5062
g210
ssS'236'
p5063
(dp5064
S'249'
p5065
g210
ssS'237'
p5066
(dp5067
S'249'
p5068
g6
ssS'230'
p5069
(dp5070
S'249'
p5071
g210
ssS'231'
p5072
(dp5073
S'252'
p5074
g6
ssS'232'
p5075
(dp5076
S'252'
p5077
g6
sS'249'
p5078
g6
ssS'233'
p5079
(dp5080
S'249'
p5081
g210
ssS'146'
p5082
(dp5083
S'251'
p5084
g6
ssS'147'
p5085
(dp5086
S'250'
p5087
g6
sS'249'
p5088
g241
ssS'144'
p5089
(dp5090
S'251'
p5091
g6
ssS'145'
p5092
(dp5093
S'251'
p5094
g6
ssS'142'
p5095
(dp5096
S'250'
p5097
g6
sS'251'
p5098
g6
ssS'143'
p5099
(dp5100
S'251'
p5101
g6
ssS'140'
p5102
(dp5103
S'250'
p5104
g6
ssS'141'
p5105
(dp5106
S'250'
p5107
g177
sS'251'
p5108
g6
sS'249'
p5109
g6
ssS'209'
p5110
(dp5111
S'249'
p5112
g210
ssS'208'
p5113
(dp5114
S'249'
p5115
g6
ssS'148'
p5116
(dp5117
S'250'
p5118
g6
ssS'149'
p5119
(dp5120
S'250'
p5121
g6
ssssS'args'
p5122
ccopy_reg
_reconstructor
p5123
(cargparse
Namespace
p5124
c__builtin__
object
p5125
Ntp5126
Rp5127
(dp5128
S'data_dir'
p5129
S'../data/'
p5130
sS'query_file'
p5131
S'../intermediate/query.json'
p5132
sS'meta_file'
p5133
S'../data/dblp/meta.dat'
p5134
sS'data_name'
p5135
S'dblp'
p5136
sS'data_sub'
p5137
S'toy'
p5138
sS'link_file'
p5139
S'../data/dblp/toy.link.dat'
p5140
sS'meta_json'
p5141
S'../intermediate/meta.json'
p5142
sS'label_file'
p5143
S'../data/dblp/toy.label.dat'
p5144
sS'pickle_file'
p5145
S'../data/dblp/toy.pickle'
p5146
sS'network_file'
p5147
S'../intermediate/network.json'
p5148
sS'node_file'
p5149
S'../data/dblp/toy.node.dat'
p5150
sbsS'meta'
p5151
(dp5152
S'node'
p5153
(dp5154
g6
S'author'
p5155
sg50
S'phrase'
p5156
sg177
S'year'
p5157
sg210
S'venue'
p5158
ssS'link'
p5159
(dp5160
g6
(g6
g6
tp5161
sg50
(g50
g50
tp5162
sg177
(g50
g6
tp5163
sg210
(g6
g50
tp5164
sg224
(g210
g6
tp5165
sg241
(g6
g210
tp5166
sg195
(g177
g6
tp5167
sg242
(g6
g177
tp5168
ssS'label'
p5169
g2
(g3
tp5170
Rp5171
g6
(dp5172
g6
(S'han'
p5173
g6
tp5174
sg50
(S'non-han'
p5175
g50
tp5176
ssg50
(dp5177
g6
(S'method'
p5178
g6
tp5179
sg50
(S'double-check'
p5180
g50
tp5181
sg177
(S'metric'
p5182
g177
tp5183
sg210
(S'application'
p5184
g210
tp5185
ssg177
(dp5186
g6
(S'2005'
p5187
g6
tp5188
sg50
(S'2000'
p5189
g50
tp5190
sg177
(S'2015'
p5191
g177
tp5192
sg210
(S'2010'
p5193
g210
tp5194
ssg210
(dp5195
g6
(S'machine learning'
p5196
g6
tp5197
sg50
(S'data mining'
p5198
g50
tp5199
sg177
(S'information retrieval'
p5200
g177
tp5201
sg210
(S'database'
p5202
g210
tp5203
ssssS'nodes'
p5204
g2
(g3
tp5205
Rp5206
g6
(dp5207
S'216'
p5208
S'Bin Jiang'
p5209
sS'217'
p5210
S'Tianyi Wu'
p5211
sS'214'
p5212
S'Kun-Lung Wu'
p5213
sS'215'
p5214
S'Zhenhua Lin'
p5215
sS'212'
p5216
S'Tim Weninger'
p5217
sS'213'
p5218
S'Arijit Khan'
p5219
sS'210'
p5220
S'Ryen W. White'
p5221
sS'211'
p5222
S'Susan T. Dumais'
p5223
sS'218'
p5224
S'Wen Jin'
p5225
sS'219'
p5226
S'Yufei Tao'
p5227
sS'133'
p5228
S'Wei Wang'
p5229
sS'132'
p5230
S'Ander de Keijzer'
p5231
sS'131'
p5232
S'Lise Getoor'
p5233
sS'130'
p5234
S'Jian Pei'
p5235
sS'137'
p5236
S'Jisheng Liang'
p5237
sS'136'
p5238
S'Baile Shi'
p5239
sS'135'
p5240
S'Yongtai Zhu'
p5241
sS'134'
p5242
S'Chen Wang'
p5243
sS'139'
p5244
S'Thien Nguyen'
p5245
sS'138'
p5246
S'Krzysztof Koperski'
p5247
sS'225'
p5248
S'Jie Yu'
p5249
sS'224'
p5250
S'Bing Liu'
p5251
sS'223'
p5252
S'Bo Zhao'
p5253
sS'222'
p5254
S'Cindy Xide Lin'
p5255
sS'221'
p5256
S'Xiaofei He'
p5257
sS'220'
p5258
S'Yizhou Sun'
p5259
sS'227'
p5260
S'Yu Zhang'
p5261
sS'120'
p5262
S'Bhavesh Shah'
p5263
sS'121'
p5264
S'T L Prasanna Venkatesan'
p5265
sS'122'
p5266
S'Lakshmanan Velusamy'
p5267
sS'123'
p5268
S'Melania Degerattu'
p5269
sS'124'
p5270
S'Xifeng Yan'
p5271
sS'125'
p5272
S'Philip S. Yu'
p5273
sS'126'
p5274
S'Min-Soo Kim'
p5275
sS'127'
p5276
S'Kyu-Young Whang'
p5277
sS'128'
p5278
S'Jae-Gil Lee'
p5279
sS'129'
p5280
S'Min-Jae Lee'
p5281
sS'201'
p5282
S'Mohammad M. Masud'
p5283
sS'199'
p5284
S'Raghotham Murthy'
p5285
sS'198'
p5286
S'Joydeep Sen Sarma'
p5287
sS'200'
p5288
S'Hao Liu'
p5289
sS'195'
p5290
S'Suresh Anthony'
p5291
sS'194'
p5292
S'Zheng Shao'
p5293
sS'197'
p5294
S'Namit Jain'
p5295
sS'196'
p5296
S'Dhruba Borthakur'
p5297
sS'191'
p5298
S'Ce Zhang'
p5299
sS'190'
p5300
S'Bin Cui'
p5301
sS'193'
p5302
S'Ashish Thusoo'
p5303
sS'192'
p5304
S'Z. Zhao'
p5305
sS'115'
p5306
S'Jieping Ye'
p5307
sS'114'
p5308
S'Beng Chin Ooi'
p5309
sS'117'
p5310
S'Qi Li'
p5311
sS'116'
p5312
S'Ravi Janardan'
p5313
sS'111'
p5314
S'Venkatesh Ganti'
p5315
sS'110'
p5316
S'Surajit Chaudhuri'
p5317
sS'113'
p5318
S'Dong Xin'
p5319
sS'112'
p5320
S'Arnd Christian K\xc3\xb6nig'
p5321
sS'205'
p5322
S'Liangliang Cao'
p5323
sS'119'
p5324
S'Thomas Burris'
p5325
sS'118'
p5326
S'Ajinkya Kale'
p5327
sS'204'
p5328
S'Bhavani M. Thuraisingham'
p5329
sS'207'
p5330
S'Jiebo Luo'
p5331
sS'206'
p5332
S'Andrey Del Pozo'
p5333
sS'226'
p5334
S'Lidan Wang'
p5335
sS'108'
p5336
S'Sanjay Agrawal'
p5337
sS'109'
p5338
S'Kaushik Chakrabarti'
p5339
sS'240'
p5340
S'Hector Gonzalez'
p5341
sS'102'
p5342
S'Zhijun Yin'
p5343
sS'103'
p5344
S'Jiawei Han'
p5345
sS'100'
p5346
S'Manish Gupta'
p5347
sS'101'
p5348
S'Rui Li'
p5349
sS'106'
p5350
S'Kian-Lee Tan'
p5351
sS'107'
p5352
S'Anthony K. H. Tung'
p5353
sS'104'
p5354
S'Feng Zhao'
p5355
sS'105'
p5356
S'Gautam Das'
p5357
sS'179'
p5358
S'Yun-Fang Juan'
p5359
sS'178'
p5360
S'Ding Zhou'
p5361
sS'177'
p5362
S'Ge Yu'
p5363
sS'176'
p5364
S'Zhenjie Zhang'
p5365
sS'175'
p5366
S'Jia Xu'
p5367
sS'174'
p5368
S'Nick Koudas'
p5369
sS'173'
p5370
S'Chen Li'
p5371
sS'172'
p5372
S'Liang Jin'
p5373
sS'171'
p5374
S'Ning An'
p5375
sS'170'
p5376
S'Jianyong Wang'
p5377
sS'203'
p5378
S'Latifur Khan'
p5379
sS'182'
p5380
S'Deng Cai'
p5381
sS'183'
p5382
S'Jinsong Lu'
p5383
sS'180'
p5384
S'Dell Zhang'
p5385
sS'181'
p5386
S'Jun Wang'
p5387
sS'186'
p5388
S'Hang Li'
p5389
sS'187'
p5390
S'Hong Cheng'
p5391
sS'184'
p5392
S'Zhengzheng Xing'
p5393
sS'185'
p5394
S'Eamonn J. Keogh'
p5395
sS'188'
p5396
S'Ke Wang'
p5397
sS'189'
p5398
S'Yu He'
p5399
sS'202'
p5400
S'Jing Gao'
p5401
sS'168'
p5402
S'Lili Jiang'
p5403
sS'169'
p5404
S'Wei Shen'
p5405
sS'229'
p5406
S'Cuiping Li'
p5407
sS'228'
p5408
S'Chen Chen'
p5409
sS'164'
p5410
S'Behzad Mortazavi-Asl'
p5411
sS'165'
p5412
S'Qiming Chen'
p5413
sS'166'
p5414
S'Umeshwar Dayal'
p5415
sS'167'
p5416
S'Meichun Hsu'
p5417
sS'160'
p5418
S'Yanzan Zhou'
p5419
sS'161'
p5420
S'Bamshad Mobasher'
p5421
sS'162'
p5422
S'Gao Cong'
p5423
sS'163'
p5424
S'Xin Xu'
p5425
sS'151'
p5426
S'Wei Chen'
p5427
sS'150'
p5428
S'Panos Kalnis'
p5429
sS'153'
p5430
S'Yajun Wang'
p5431
sS'152'
p5432
S'Chi Wang'
p5433
sS'155'
p5434
S'Ming Ji'
p5435
sS'154'
p5436
S'Zhenhui Li'
p5437
sS'157'
p5438
S'Yintao Yu'
p5439
sS'156'
p5440
S'Lu An Tang'
p5441
sS'159'
p5442
S'Xin Jin'
p5443
sS'158'
p5444
S'Roland Kays'
p5445
sS'238'
p5446
S'Honglei Zhuang'
p5447
sS'239'
p5448
S'Hwanjo Yu'
p5449
sS'234'
p5450
S'Bolin Ding'
p5451
sS'235'
p5452
S'Xiaoxin Yin'
p5453
sS'236'
p5454
S'Peixiang Zhao'
p5455
sS'237'
p5456
S'Quan Yuan'
p5457
sS'230'
p5458
S'Hong Chen'
p5459
sS'231'
p5460
S'Jialu Liu'
p5461
sS'232'
p5462
S'Charu C. Aggarwal'
p5463
sS'233'
p5464
S'Nan Zhang'
p5465
sS'146'
p5466
S'Wei Tang'
p5467
sS'147'
p5468
S'Daxin Jiang'
p5469
sS'144'
p5470
S'Wei Han'
p5471
sS'145'
p5472
S'Henrique Paques'
p5473
sS'142'
p5474
S'Calton Pu'
p5475
sS'143'
p5476
S'David Buttler'
p5477
sS'140'
p5478
S'Giovanni B. Marchisio'
p5479
sS'141'
p5480
S'Ling Liu'
p5481
sS'209'
p5482
S'Chao Liu'
p5483
sS'208'
p5484
S'Thomas S. Huang'
p5485
sS'148'
p5486
S'Aidong Zhang'
p5487
sS'149'
p5488
S'Rui Yang'
p5489
ssg50
(dp5490
S'24'
p5491
S'graph query'
p5492
sS'25'
p5493
S'frequent pattern'
p5494
sS'26'
p5495
S'information retrieval'
p5496
sS'27'
p5497
S'graph theory'
p5498
sS'20'
p5499
S'high dimensional data'
p5500
sS'21'
p5501
S'dimension reduction'
p5502
sS'22'
p5503
S'image retrieval'
p5504
sS'23'
p5505
S'web pages'
p5506
sS'28'
p5507
S'data mining'
p5508
sS'29'
p5509
S'pattern recognition'
p5510
sg50
S'social tagging'
p5511
sg241
S'social classification'
p5512
sg196
S'right tag'
p5513
sS'59'
p5514
S'web data'
p5515
sS'58'
p5516
S'sequential pattern mining'
p5517
sS'55'
p5518
S'mining result'
p5519
sS'54'
p5520
S'object data'
p5521
sS'57'
p5522
S'rule based'
p5523
sS'56'
p5524
S'recommender system'
p5525
sS'51'
p5526
S'heuristic algorithm'
p5527
sS'50'
p5528
S'tree structure'
p5529
sS'53'
p5530
S'social networks'
p5531
sS'52'
p5532
S'social network'
p5533
sS'88'
p5534
S'relational databases'
p5535
sS'89'
p5536
S'learning to rank'
p5537
sS'82'
p5538
S'synthetic data'
p5539
sS'83'
p5540
S'information network'
p5541
sS'80'
p5542
S'random walk'
p5543
sS'81'
p5544
S'large graph'
p5545
sS'86'
p5546
S'manifold learning'
p5547
sS'87'
p5548
S'vector space model'
p5549
sS'84'
p5550
S'data retrieval'
p5551
sS'85'
p5552
S'world wide web'
p5553
sg177
S'collaborative tagging'
p5554
sg195
S'people tag'
p5555
sS'39'
p5556
S'uncertain data'
p5557
sS'38'
p5558
S'data streams'
p5559
sS'33'
p5560
S'graph databases'
p5561
sS'32'
p5562
S'query performance'
p5563
sS'31'
p5564
S'data structure'
p5565
sS'30'
p5566
S'database management system'
p5567
sS'37'
p5568
S'feature selection'
p5569
sS'36'
p5570
S'memory bandwidth'
p5571
sS'35'
p5572
S'database system'
p5573
sS'34'
p5574
S'similarity search'
p5575
sS'60'
p5576
S'web search'
p5577
sS'61'
p5578
S'relational database'
p5579
sS'62'
p5580
S'distance metric'
p5581
sS'63'
p5582
S'online advertising'
p5583
sS'64'
p5584
S'laplacian eigenmap'
p5585
sS'65'
p5586
S'support vector machine'
p5587
sS'66'
p5588
S'log data'
p5589
sS'67'
p5590
S'log mining'
p5591
sS'68'
p5592
S'process large scale log'
p5593
sS'69'
p5594
S'search engine'
p5595
sg210
S'tag semantics'
p5596
sg242
S'tagging process'
p5597
sS'99'
p5598
S'search space'
p5599
sS'98'
p5600
S'divide and conquer'
p5601
sS'91'
p5602
S'covariance matrix'
p5603
sS'90'
p5604
S'load balance'
p5605
sS'93'
p5606
S'skyline query'
p5607
sS'92'
p5608
S'web mining'
p5609
sS'95'
p5610
S'query optimization'
p5611
sS'94'
p5612
S'essential data mining task'
p5613
sS'97'
p5614
S'active learning'
p5615
sS'96'
p5616
S'recommender systems'
p5617
sS'11'
p5618
S'database community'
p5619
sS'10'
p5620
S'folk classification'
p5621
sS'13'
p5622
S'hierarchical clustering'
p5623
sS'12'
p5624
S'skyline object'
p5625
sS'15'
p5626
S'web search engine'
p5627
sS'14'
p5628
S'extensive experiment'
p5629
sS'17'
p5630
S'data management'
p5631
sS'16'
p5632
S'information extraction'
p5633
sS'19'
p5634
S'feature extraction'
p5635
sS'18'
p5636
S'face recognition'
p5637
sS'48'
p5638
S'lower bound'
p5639
sS'49'
p5640
S'edit distance'
p5641
sS'46'
p5642
S'novel algorithm'
p5643
sS'47'
p5644
S'computational complexity'
p5645
sS'44'
p5646
S'text mining'
p5647
sS'45'
p5648
S'statistical analysis'
p5649
sS'42'
p5650
S'new approach'
p5651
sS'43'
p5652
S'data analysis'
p5653
sS'40'
p5654
S'knowledge discovery'
p5655
sS'41'
p5656
S'efficient algorithm'
p5657
sg6
S'tagging domain'
p5658
sg224
S'web object'
p5659
sg197
S'tagging usage'
p5660
sS'77'
p5661
S'graph structure'
p5662
sS'76'
p5663
S'network structure'
p5664
sS'75'
p5665
S'web page'
p5666
sS'74'
p5667
S'image collection'
p5668
sS'73'
p5669
S'probabilistic model'
p5670
sS'72'
p5671
S'small number'
p5672
sS'71'
p5673
S'empirical study'
p5674
sS'70'
p5675
S'generative model'
p5676
sS'79'
p5677
S'user experience'
p5678
sS'78'
p5679
S'unified framework'
p5680
ssg177
(dp5681
S'252'
p5682
S'2015'
p5683
sS'250'
p5684
S'2005'
p5685
sS'251'
p5686
S'2000'
p5687
sS'249'
p5688
S'2010'
p5689
ssg210
(dp5690
S'245'
p5691
S'very large data bases'
p5692
sS'244'
p5693
S'international acm sigir conference on research and development in information retrieval'
p5694
sS'247'
p5695
S'web search and data mining'
p5696
sS'246'
p5697
S'international world wide web conferences'
p5698
sS'241'
p5699
S'knowledge discovery and data mining'
p5700
sS'243'
p5701
S'neural information processing systems'
p5702
sS'242'
p5703
S'international conference on management of data'
p5704
sS'248'
p5705
S'international conference on machine learning'
p5706
sss.